(imatplotlib.font_manager
FontManager
p1
(dp2
S'afm_lookup_cache'
p3
(dp4
sS'ttflist'
p5
(lp6
ccopy_reg
_reconstructor
p7
(cmatplotlib.font_manager
FontEntry
p8
c__builtin__
object
p9
NtRp10
(dp11
S'style'
p12
S'normal'
p13
sS'name'
p14
S'Bitstream Vera Sans'
p15
sS'weight'
p16
I400
sS'stretch'
p17
g13
sS'variant'
p18
g13
sS'fname'
p19
S'/home/kannab/soft/casa-pipeline-release-5.6.1-8.el7/lib/python2.7/site-packages/matplotlib/mpl-data/fonts/ttf/Vera.ttf'
p20
sS'size'
p21
S'scalable'
p22
sbag7
(g8
g9
NtRp23
(dp24
g12
g13
sg14
S'cmtt10'
p25
sg16
I400
sg17
g13
sg18
g13
sg19
S'/home/kannab/soft/casa-pipeline-release-5.6.1-8.el7/lib/python2.7/site-packages/matplotlib/mpl-data/fonts/ttf/cmtt10.ttf'
p26
sg21
g22
sbag7
(g8
g9
NtRp27
(dp28
g12
g13
sg14
S'STIXNonUnicode'
p29
sg16
I700
sg17
g13
sg18
g13
sg19
S'/home/kannab/soft/casa-pipeline-release-5.6.1-8.el7/lib/python2.7/site-packages/matplotlib/mpl-data/fonts/ttf/STIXNonUniBol.ttf'
p30
sg21
g22
sbag7
(g8
g9
NtRp31
(dp32
g12
g13
sg14
S'cmr10'
p33
sg16
I400
sg17
g13
sg18
g13
sg19
S'/home/kannab/soft/casa-pipeline-release-5.6.1-8.el7/lib/python2.7/site-packages/matplotlib/mpl-data/fonts/ttf/cmr10.ttf'
p34
sg21
g22
sbag7
(g8
g9
NtRp35
(dp36
g12
g13
sg14
S'STIXSizeOneSym'
p37
sg16
I400
sg17
g13
sg18
g13
sg19
S'/home/kannab/soft/casa-pipeline-release-5.6.1-8.el7/lib/python2.7/site-packages/matplotlib/mpl-data/fonts/ttf/STIXSizOneSymReg.ttf'
p38
sg21
g22
sbag7
(g8
g9
NtRp39
(dp40
g12
S'italic'
p41
sg14
S'STIXNonUnicode'
p42
sg16
I700
sg17
g13
sg18
g13
sg19
S'/home/kannab/soft/casa-pipeline-release-5.6.1-8.el7/lib/python2.7/site-packages/matplotlib/mpl-data/fonts/ttf/STIXNonUniBolIta.ttf'
p43
sg21
g22
sbag7
(g8
g9
NtRp44
(dp45
g12
S'oblique'
p46
sg14
S'Bitstream Vera Sans Mono'
p47
sg16
I700
sg17
g13
sg18
g13
sg19
S'/home/kannab/soft/casa-pipeline-release-5.6.1-8.el7/lib/python2.7/site-packages/matplotlib/mpl-data/fonts/ttf/VeraMoBI.ttf'
p48
sg21
g22
sbag7
(g8
g9
NtRp49
(dp50
g12
g13
sg14
S'STIXSizeFiveSym'
p51
sg16
I400
sg17
g13
sg18
g13
sg19
S'/home/kannab/soft/casa-pipeline-release-5.6.1-8.el7/lib/python2.7/site-packages/matplotlib/mpl-data/fonts/ttf/STIXSizFiveSymReg.ttf'
p52
sg21
g22
sbag7
(g8
g9
NtRp53
(dp54
g12
g41
sg14
S'STIXGeneral'
p55
sg16
I700
sg17
g13
sg18
g13
sg19
S'/home/kannab/soft/casa-pipeline-release-5.6.1-8.el7/lib/python2.7/site-packages/matplotlib/mpl-data/fonts/ttf/STIXGeneralBolIta.ttf'
p56
sg21
g22
sbag7
(g8
g9
NtRp57
(dp58
g12
g13
sg14
S'Bitstream Vera Serif'
p59
sg16
I400
sg17
g13
sg18
g13
sg19
S'/home/kannab/soft/casa-pipeline-release-5.6.1-8.el7/lib/python2.7/site-packages/matplotlib/mpl-data/fonts/ttf/VeraSe.ttf'
p60
sg21
g22
sbag7
(g8
g9
NtRp61
(dp62
g12
g13
sg14
S'STIXSizeFourSym'
p63
sg16
I700
sg17
g13
sg18
g13
sg19
S'/home/kannab/soft/casa-pipeline-release-5.6.1-8.el7/lib/python2.7/site-packages/matplotlib/mpl-data/fonts/ttf/STIXSizFourSymBol.ttf'
p64
sg21
g22
sbag7
(g8
g9
NtRp65
(dp66
g12
g46
sg14
S'Bitstream Vera Sans'
p67
sg16
I700
sg17
g13
sg18
g13
sg19
S'/home/kannab/soft/casa-pipeline-release-5.6.1-8.el7/lib/python2.7/site-packages/matplotlib/mpl-data/fonts/ttf/VeraBI.ttf'
p68
sg21
g22
sbag7
(g8
g9
NtRp69
(dp70
g12
g13
sg14
S'cmmi10'
p71
sg16
I400
sg17
g13
sg18
g13
sg19
S'/home/kannab/soft/casa-pipeline-release-5.6.1-8.el7/lib/python2.7/site-packages/matplotlib/mpl-data/fonts/ttf/cmmi10.ttf'
p72
sg21
g22
sbag7
(g8
g9
NtRp73
(dp74
g12
g13
sg14
S'STIXGeneral'
p75
sg16
I400
sg17
g13
sg18
g13
sg19
S'/home/kannab/soft/casa-pipeline-release-5.6.1-8.el7/lib/python2.7/site-packages/matplotlib/mpl-data/fonts/ttf/STIXGeneral.ttf'
p76
sg21
g22
sbag7
(g8
g9
NtRp77
(dp78
g12
g41
sg14
S'STIXNonUnicode'
p79
sg16
I400
sg17
g13
sg18
g13
sg19
S'/home/kannab/soft/casa-pipeline-release-5.6.1-8.el7/lib/python2.7/site-packages/matplotlib/mpl-data/fonts/ttf/STIXNonUniIta.ttf'
p80
sg21
g22
sbag7
(g8
g9
NtRp81
(dp82
g12
g13
sg14
S'STIXGeneral'
p83
sg16
I700
sg17
g13
sg18
g13
sg19
S'/home/kannab/soft/casa-pipeline-release-5.6.1-8.el7/lib/python2.7/site-packages/matplotlib/mpl-data/fonts/ttf/STIXGeneralBol.ttf'
p84
sg21
g22
sbag7
(g8
g9
NtRp85
(dp86
g12
g13
sg14
S'Bitstream Vera Sans'
p87
sg16
I700
sg17
g13
sg18
g13
sg19
S'/home/kannab/soft/casa-pipeline-release-5.6.1-8.el7/lib/python2.7/site-packages/matplotlib/mpl-data/fonts/ttf/VeraBd.ttf'
p88
sg21
g22
sbag7
(g8
g9
NtRp89
(dp90
g12
g13
sg14
S'cmsy10'
p91
sg16
I400
sg17
g13
sg18
g13
sg19
S'/home/kannab/soft/casa-pipeline-release-5.6.1-8.el7/lib/python2.7/site-packages/matplotlib/mpl-data/fonts/ttf/cmsy10.ttf'
p92
sg21
g22
sbag7
(g8
g9
NtRp93
(dp94
g12
g46
sg14
S'Bitstream Vera Sans Mono'
p95
sg16
I400
sg17
g13
sg18
g13
sg19
S'/home/kannab/soft/casa-pipeline-release-5.6.1-8.el7/lib/python2.7/site-packages/matplotlib/mpl-data/fonts/ttf/VeraMoIt.ttf'
p96
sg21
g22
sbag7
(g8
g9
NtRp97
(dp98
g12
g13
sg14
S'STIXSizeThreeSym'
p99
sg16
I700
sg17
g13
sg18
g13
sg19
S'/home/kannab/soft/casa-pipeline-release-5.6.1-8.el7/lib/python2.7/site-packages/matplotlib/mpl-data/fonts/ttf/STIXSizThreeSymBol.ttf'
p100
sg21
g22
sbag7
(g8
g9
NtRp101
(dp102
g12
g46
sg14
S'Bitstream Vera Sans'
p103
sg16
I400
sg17
g13
sg18
g13
sg19
S'/home/kannab/soft/casa-pipeline-release-5.6.1-8.el7/lib/python2.7/site-packages/matplotlib/mpl-data/fonts/ttf/VeraIt.ttf'
p104
sg21
g22
sbag7
(g8
g9
NtRp105
(dp106
g12
g13
sg14
S'Bitstream Vera Sans Mono'
p107
sg16
I700
sg17
g13
sg18
g13
sg19
S'/home/kannab/soft/casa-pipeline-release-5.6.1-8.el7/lib/python2.7/site-packages/matplotlib/mpl-data/fonts/ttf/VeraMoBd.ttf'
p108
sg21
g22
sbag7
(g8
g9
NtRp109
(dp110
g12
g13
sg14
S'cmb10'
p111
sg16
I400
sg17
g13
sg18
g13
sg19
S'/home/kannab/soft/casa-pipeline-release-5.6.1-8.el7/lib/python2.7/site-packages/matplotlib/mpl-data/fonts/ttf/cmb10.ttf'
p112
sg21
g22
sbag7
(g8
g9
NtRp113
(dp114
g12
g13
sg14
S'Bitstream Vera Serif'
p115
sg16
I700
sg17
g13
sg18
g13
sg19
S'/home/kannab/soft/casa-pipeline-release-5.6.1-8.el7/lib/python2.7/site-packages/matplotlib/mpl-data/fonts/ttf/VeraSeBd.ttf'
p116
sg21
g22
sbag7
(g8
g9
NtRp117
(dp118
g12
g13
sg14
S'STIXSizeFourSym'
p119
sg16
I400
sg17
g13
sg18
g13
sg19
S'/home/kannab/soft/casa-pipeline-release-5.6.1-8.el7/lib/python2.7/site-packages/matplotlib/mpl-data/fonts/ttf/STIXSizFourSymReg.ttf'
p120
sg21
g22
sbag7
(g8
g9
NtRp121
(dp122
g12
g13
sg14
S'STIXSizeTwoSym'
p123
sg16
I700
sg17
g13
sg18
g13
sg19
S'/home/kannab/soft/casa-pipeline-release-5.6.1-8.el7/lib/python2.7/site-packages/matplotlib/mpl-data/fonts/ttf/STIXSizTwoSymBol.ttf'
p124
sg21
g22
sbag7
(g8
g9
NtRp125
(dp126
g12
g13
sg14
S'cmss10'
p127
sg16
I400
sg17
g13
sg18
g13
sg19
S'/home/kannab/soft/casa-pipeline-release-5.6.1-8.el7/lib/python2.7/site-packages/matplotlib/mpl-data/fonts/ttf/cmss10.ttf'
p128
sg21
g22
sbag7
(g8
g9
NtRp129
(dp130
g12
g13
sg14
S'cmex10'
p131
sg16
I400
sg17
g13
sg18
g13
sg19
S'/home/kannab/soft/casa-pipeline-release-5.6.1-8.el7/lib/python2.7/site-packages/matplotlib/mpl-data/fonts/ttf/cmex10.ttf'
p132
sg21
g22
sbag7
(g8
g9
NtRp133
(dp134
g12
g13
sg14
S'STIXSizeTwoSym'
p135
sg16
I400
sg17
g13
sg18
g13
sg19
S'/home/kannab/soft/casa-pipeline-release-5.6.1-8.el7/lib/python2.7/site-packages/matplotlib/mpl-data/fonts/ttf/STIXSizTwoSymReg.ttf'
p136
sg21
g22
sbag7
(g8
g9
NtRp137
(dp138
g12
g41
sg14
S'STIXGeneral'
p139
sg16
I400
sg17
g13
sg18
g13
sg19
S'/home/kannab/soft/casa-pipeline-release-5.6.1-8.el7/lib/python2.7/site-packages/matplotlib/mpl-data/fonts/ttf/STIXGeneralItalic.ttf'
p140
sg21
g22
sbag7
(g8
g9
NtRp141
(dp142
g12
g13
sg14
S'STIXSizeOneSym'
p143
sg16
I700
sg17
g13
sg18
g13
sg19
S'/home/kannab/soft/casa-pipeline-release-5.6.1-8.el7/lib/python2.7/site-packages/matplotlib/mpl-data/fonts/ttf/STIXSizOneSymBol.ttf'
p144
sg21
g22
sbag7
(g8
g9
NtRp145
(dp146
g12
g13
sg14
S'STIXNonUnicode'
p147
sg16
I400
sg17
g13
sg18
g13
sg19
S'/home/kannab/soft/casa-pipeline-release-5.6.1-8.el7/lib/python2.7/site-packages/matplotlib/mpl-data/fonts/ttf/STIXNonUni.ttf'
p148
sg21
g22
sbag7
(g8
g9
NtRp149
(dp150
g12
g13
sg14
S'Bitstream Vera Sans Mono'
p151
sg16
I400
sg17
g13
sg18
g13
sg19
S'/home/kannab/soft/casa-pipeline-release-5.6.1-8.el7/lib/python2.7/site-packages/matplotlib/mpl-data/fonts/ttf/VeraMono.ttf'
p152
sg21
g22
sbag7
(g8
g9
NtRp153
(dp154
g12
g13
sg14
S'STIXSizeThreeSym'
p155
sg16
I400
sg17
g13
sg18
g13
sg19
S'/home/kannab/soft/casa-pipeline-release-5.6.1-8.el7/lib/python2.7/site-packages/matplotlib/mpl-data/fonts/ttf/STIXSizThreeSymReg.ttf'
p156
sg21
g22
sbag7
(g8
g9
NtRp157
(dp158
g12
g13
sg14
S'Noto Sans'
p159
sg16
I400
sg17
g13
sg18
g13
sg19
S'/usr/share/fonts/noto/NotoSans-Medium.ttf'
p160
sg21
g22
sbag7
(g8
g9
NtRp161
(dp162
g12
g13
sg14
S'MalOtf'
p163
sg16
I400
sg17
g13
sg18
g13
sg19
S'/usr/share/fonts/TTF/MalOtf.ttf'
p164
sg21
g22
sbag7
(g8
g9
NtRp165
(dp166
g12
g13
sg14
S'Noto Sans Old Italic'
p167
sg16
I400
sg17
g13
sg18
g13
sg19
S'/usr/share/fonts/noto/NotoSansOldItalic-Regular.ttf'
p168
sg21
g22
sbag7
(g8
g9
NtRp169
(dp170
g12
g41
sg14
S'Noto Serif'
p171
sg16
I400
sg17
g13
sg18
g13
sg19
S'/usr/share/fonts/noto/NotoSerif-MediumItalic.ttf'
p172
sg21
g22
sbag7
(g8
g9
NtRp173
(dp174
g12
g41
sg14
S'Noto Sans'
p175
sg16
I400
sg17
g13
sg18
g13
sg19
S'/usr/share/fonts/noto/NotoSans-LightItalic.ttf'
p176
sg21
g22
sbag7
(g8
g9
NtRp177
(dp178
g12
g13
sg14
S'C059'
p179
sg16
I700
sg17
g13
sg18
g13
sg19
S'/usr/share/fonts/gsfonts/C059-Bold.otf'
p180
sg21
g22
sbag7
(g8
g9
NtRp181
(dp182
g12
g13
sg14
S'Source Code Pro'
p183
sg16
I400
sg17
g13
sg18
g13
sg19
S'/usr/share/fonts/adobe-source-code-pro/SourceCodePro-Regular.otf'
p184
sg21
g22
sbag7
(g8
g9
NtRp185
(dp186
g12
g13
sg14
S'Noto Sans Lao UI'
p187
sg16
I400
sg17
g13
sg18
g13
sg19
S'/usr/share/fonts/noto/NotoSansLaoUI-Medium.ttf'
p188
sg21
g22
sbag7
(g8
g9
NtRp189
(dp190
g12
g13
sg14
S'Noto Serif Georgian'
p191
sg16
I400
sg17
g13
sg18
g13
sg19
S'/usr/share/fonts/noto/NotoSerifGeorgian-Regular.ttf'
p192
sg21
g22
sbag7
(g8
g9
NtRp193
(dp194
g12
g13
sg14
S'Noto Serif Hebrew'
p195
sg16
I400
sg17
g13
sg18
g13
sg19
S'/usr/share/fonts/noto/NotoSerifHebrew-Medium.ttf'
p196
sg21
g22
sbag7
(g8
g9
NtRp197
(dp198
g12
g13
sg14
S'Noto Serif'
p199
sg16
I400
sg17
g13
sg18
g13
sg19
S'/usr/share/fonts/noto/NotoSerif-Light.ttf'
p200
sg21
g22
sbag7
(g8
g9
NtRp201
(dp202
g12
g13
sg14
S'Noto Sans Tamil'
p203
sg16
I700
sg17
g13
sg18
g13
sg19
S'/usr/share/fonts/noto/NotoSansTamil-Bold.ttf'
p204
sg21
g22
sbag7
(g8
g9
NtRp205
(dp206
g12
g13
sg14
S'Noto Serif Tibetan'
p207
sg16
I400
sg17
g13
sg18
g13
sg19
S'/usr/share/fonts/noto/NotoSerifTibetan-Black.ttf'
p208
sg21
g22
sbag7
(g8
g9
NtRp209
(dp210
g12
g13
sg14
S'Noto Sans Symbols'
p211
sg16
I700
sg17
g13
sg18
g13
sg19
S'/usr/share/fonts/noto/NotoSansSymbols-Bold.ttf'
p212
sg21
g22
sbag7
(g8
g9
NtRp213
(dp214
g12
g13
sg14
S'Noto Sans Ethiopic'
p215
sg16
I400
sg17
g13
sg18
g13
sg19
S'/usr/share/fonts/noto/NotoSansEthiopic-Black.ttf'
p216
sg21
g22
sbag7
(g8
g9
NtRp217
(dp218
g12
g13
sg14
S'Noto Sans Khmer'
p219
sg16
I700
sg17
g13
sg18
g13
sg19
S'/usr/share/fonts/noto/NotoSansKhmer-Bold.ttf'
p220
sg21
g22
sbag7
(g8
g9
NtRp221
(dp222
g12
g13
sg14
S'Noto Sans Kannada'
p223
sg16
I400
sg17
g13
sg18
g13
sg19
S'/usr/share/fonts/noto/NotoSansKannada-Light.ttf'
p224
sg21
g22
sbag7
(g8
g9
NtRp225
(dp226
g12
g13
sg14
S'Noto Sans Lao'
p227
sg16
I400
sg17
g13
sg18
g13
sg19
S'/usr/share/fonts/noto/NotoSansLao-Medium.ttf'
p228
sg21
g22
sbag7
(g8
g9
NtRp229
(dp230
g12
g13
sg14
S'Noto Sans Tamil UI'
p231
sg16
I700
sg17
g13
sg18
g13
sg19
S'/usr/share/fonts/noto/NotoSansTamilUI-Bold.ttf'
p232
sg21
g22
sbag7
(g8
g9
NtRp233
(dp234
g12
g13
sg14
S'Noto Sans Bamum'
p235
sg16
I400
sg17
g13
sg18
g13
sg19
S'/usr/share/fonts/noto/NotoSansBamum-Regular.ttf'
p236
sg21
g22
sbag7
(g8
g9
NtRp237
(dp238
g12
g13
sg14
S'Droid Sans Armenian'
p239
sg16
I400
sg17
g13
sg18
g13
sg19
S'/usr/share/fonts/droid/DroidSansArmenian.ttf'
p240
sg21
g22
sbag7
(g8
g9
NtRp241
(dp242
g12
g13
sg14
S'Noto Sans Ol Chiki'
p243
sg16
I400
sg17
g13
sg18
g13
sg19
S'/usr/share/fonts/noto/NotoSansOlChiki-Regular.ttf'
p244
sg21
g22
sbag7
(g8
g9
NtRp245
(dp246
g12
g13
sg14
S'Noto Serif Sinhala'
p247
sg16
I400
sg17
g13
sg18
g13
sg19
S'/usr/share/fonts/noto/NotoSerifSinhala-Black.ttf'
p248
sg21
g22
sbag7
(g8
g9
NtRp249
(dp250
g12
g13
sg14
S'C059'
p251
sg16
I500
sg17
g13
sg18
g13
sg19
S'/usr/share/fonts/gsfonts/C059-Roman.otf'
p252
sg21
g22
sbag7
(g8
g9
NtRp253
(dp254
g12
g13
sg14
S'Noto Sans Cherokee'
p255
sg16
I400
sg17
g13
sg18
g13
sg19
S'/usr/share/fonts/noto/NotoSansCherokee-Medium.ttf'
p256
sg21
g22
sbag7
(g8
g9
NtRp257
(dp258
g12
g13
sg14
S'Noto Sans Hebrew'
p259
sg16
I400
sg17
g13
sg18
g13
sg19
S'/usr/share/fonts/noto/NotoSansHebrew-Light.ttf'
p260
sg21
g22
sbag7
(g8
g9
NtRp261
(dp262
g12
g13
sg14
S'Nimbus Roman'
p263
sg16
I700
sg17
g13
sg18
g13
sg19
S'/usr/share/fonts/gsfonts/NimbusRoman-Bold.otf'
p264
sg21
g22
sbag7
(g8
g9
NtRp265
(dp266
g12
g13
sg14
S'Noto Serif Lao'
p267
sg16
I700
sg17
g13
sg18
g13
sg19
S'/usr/share/fonts/noto/NotoSerifLao-Bold.ttf'
p268
sg21
g22
sbag7
(g8
g9
NtRp269
(dp270
g12
g13
sg14
S'Source Code Pro'
p271
sg16
I700
sg17
g13
sg18
g13
sg19
S'/usr/share/fonts/adobe-source-code-pro/SourceCodePro-Bold.otf'
p272
sg21
g22
sbag7
(g8
g9
NtRp273
(dp274
g12
g13
sg14
S'Noto Sans Devanagari UI'
p275
sg16
I400
sg17
g13
sg18
g13
sg19
S'/usr/share/fonts/noto/NotoSansDevanagariUI-Black.ttf'
p276
sg21
g22
sbag7
(g8
g9
NtRp277
(dp278
g12
g13
sg14
S'Noto Sans New Tai Lue'
p279
sg16
I400
sg17
g13
sg18
g13
sg19
S'/usr/share/fonts/noto/NotoSansNewTaiLue-Regular.ttf'
p280
sg21
g22
sbag7
(g8
g9
NtRp281
(dp282
g12
g13
sg14
S'Noto Sans Limbu'
p283
sg16
I400
sg17
g13
sg18
g13
sg19
S'/usr/share/fonts/noto/NotoSansLimbu-Regular.ttf'
p284
sg21
g22
sbag7
(g8
g9
NtRp285
(dp286
g12
g13
sg14
S'Noto Serif Display'
p287
sg16
I400
sg17
g13
sg18
g13
sg19
S'/usr/share/fonts/noto/NotoSerifDisplay-Medium.ttf'
p288
sg21
g22
sbag7
(g8
g9
NtRp289
(dp290
g12
g13
sg14
S'Noto Serif Tamil'
p291
sg16
I700
sg17
g13
sg18
g13
sg19
S'/usr/share/fonts/noto/NotoSerifTamil-Bold.ttf'
p292
sg21
g22
sbag7
(g8
g9
NtRp293
(dp294
g12
g13
sg14
S'Noto Serif Kannada'
p295
sg16
I400
sg17
g13
sg18
g13
sg19
S'/usr/share/fonts/noto/NotoSerifKannada-Light.ttf'
p296
sg21
g22
sbag7
(g8
g9
NtRp297
(dp298
g12
g13
sg14
S'Noto Serif Tamil Slanted'
p299
sg16
I400
sg17
g13
sg18
g13
sg19
S'/usr/share/fonts/noto/NotoSerifTamilSlanted-Light.ttf'
p300
sg21
g22
sbag7
(g8
g9
NtRp301
(dp302
g12
g13
sg14
S'Noto Sans Kannada UI'
p303
sg16
I400
sg17
g13
sg18
g13
sg19
S'/usr/share/fonts/noto/NotoSansKannadaUI-Medium.ttf'
p304
sg21
g22
sbag7
(g8
g9
NtRp305
(dp306
g12
g41
sg14
S'Noto Serif Display'
p307
sg16
I400
sg17
g13
sg18
g13
sg19
S'/usr/share/fonts/noto/NotoSerifDisplay-BlackItalic.ttf'
p308
sg21
g22
sbag7
(g8
g9
NtRp309
(dp310
g12
g41
sg14
S'C059'
p311
sg16
I700
sg17
g13
sg18
g13
sg19
S'/usr/share/fonts/gsfonts/C059-BdIta.otf'
p312
sg21
g22
sbag7
(g8
g9
NtRp313
(dp314
g12
g13
sg14
S'Noto Sans Arabic'
p315
sg16
I400
sg17
g13
sg18
g13
sg19
S'/usr/share/fonts/noto/NotoSansArabic-Regular.ttf'
p316
sg21
g22
sbag7
(g8
g9
NtRp317
(dp318
g12
g13
sg14
S'Noto Sans Thaana'
p319
sg16
I400
sg17
g13
sg18
g13
sg19
S'/usr/share/fonts/noto/NotoSansThaana-Black.ttf'
p320
sg21
g22
sbag7
(g8
g9
NtRp321
(dp322
g12
g13
sg14
S'Noto Serif Myanmar'
p323
sg16
I700
sg17
g13
sg18
g13
sg19
S'/usr/share/fonts/noto/NotoSerifMyanmar-Bold.ttf'
p324
sg21
g22
sbag7
(g8
g9
NtRp325
(dp326
g12
g13
sg14
S'AkrutiMal2'
p327
sg16
I400
sg17
g13
sg18
g13
sg19
S'/usr/share/fonts/TTF/mal2-n.ttf'
p328
sg21
g22
sbag7
(g8
g9
NtRp329
(dp330
g12
g13
sg14
S'Noto Sans Cham'
p331
sg16
I400
sg17
g13
sg18
g13
sg19
S'/usr/share/fonts/noto/NotoSansCham-Regular.ttf'
p332
sg21
g22
sbag7
(g8
g9
NtRp333
(dp334
g12
g13
sg14
S'Noto Sans Cham'
p335
sg16
I400
sg17
g13
sg18
g13
sg19
S'/usr/share/fonts/noto/NotoSansCham-Thin.ttf'
p336
sg21
g22
sbag7
(g8
g9
NtRp337
(dp338
g12
g13
sg14
S'Noto Sans Cham'
p339
sg16
I400
sg17
g13
sg18
g13
sg19
S'/usr/share/fonts/noto/NotoSansCham-Light.ttf'
p340
sg21
g22
sbag7
(g8
g9
NtRp341
(dp342
g12
g13
sg14
S'Noto Sans Bengali'
p343
sg16
I400
sg17
g13
sg18
g13
sg19
S'/usr/share/fonts/noto/NotoSansBengali-Light.ttf'
p344
sg21
g22
sbag7
(g8
g9
NtRp345
(dp346
g12
g13
sg14
S'Noto Sans Thai UI'
p347
sg16
I400
sg17
g13
sg18
g13
sg19
S'/usr/share/fonts/noto/NotoSansThaiUI-Regular.ttf'
p348
sg21
g22
sbag7
(g8
g9
NtRp349
(dp350
g12
g13
sg14
S'Noto Serif Ethiopic'
p351
sg16
I400
sg17
g13
sg18
g13
sg19
S'/usr/share/fonts/noto/NotoSerifEthiopic-Light.ttf'
p352
sg21
g22
sbag7
(g8
g9
NtRp353
(dp354
g12
g13
sg14
S'Noto Sans Display'
p355
sg16
I400
sg17
g13
sg18
g13
sg19
S'/usr/share/fonts/noto/NotoSansDisplay-Regular.ttf'
p356
sg21
g22
sbag7
(g8
g9
NtRp357
(dp358
g12
g13
sg14
S'Mukti Narrow'
p359
sg16
I700
sg17
g13
sg18
g13
sg19
S'/usr/share/fonts/TTF/MuktiNarrowBold.ttf'
p360
sg21
g22
sbag7
(g8
g9
NtRp361
(dp362
g12
g41
sg14
S'Noto Serif Display'
p363
sg16
I400
sg17
g13
sg18
g13
sg19
S'/usr/share/fonts/noto/NotoSerifDisplay-MediumItalic.ttf'
p364
sg21
g22
sbag7
(g8
g9
NtRp365
(dp366
g12
g13
sg14
S'Noto Sans Cherokee'
p367
sg16
I700
sg17
g13
sg18
g13
sg19
S'/usr/share/fonts/noto/NotoSansCherokee-Bold.ttf'
p368
sg21
g22
sbag7
(g8
g9
NtRp369
(dp370
g12
g13
sg14
S'Noto Sans Chakma'
p371
sg16
I400
sg17
g13
sg18
g13
sg19
S'/usr/share/fonts/noto/NotoSansChakma-Regular.ttf'
p372
sg21
g22
sbag7
(g8
g9
NtRp373
(dp374
g12
g13
sg14
S'Nimbus Mono PS'
p375
sg16
I400
sg17
g13
sg18
g13
sg19
S'/usr/share/fonts/gsfonts/NimbusMonoPS-Regular.otf'
p376
sg21
g22
sbag7
(g8
g9
NtRp377
(dp378
g12
g13
sg14
S'Noto Sans Pau Cin Hau'
p379
sg16
I400
sg17
g13
sg18
g13
sg19
S'/usr/share/fonts/noto/NotoSansPauCinHau-Regular.ttf'
p380
sg21
g22
sbag7
(g8
g9
NtRp381
(dp382
g12
g13
sg14
S'Noto Sans Malayalam'
p383
sg16
I400
sg17
g13
sg18
g13
sg19
S'/usr/share/fonts/noto/NotoSansMalayalam-Light.ttf'
p384
sg21
g22
sbag7
(g8
g9
NtRp385
(dp386
g12
g13
sg14
S'Noto Sans Georgian'
p387
sg16
I400
sg17
g13
sg18
g13
sg19
S'/usr/share/fonts/noto/NotoSansGeorgian-Regular.ttf'
p388
sg21
g22
sbag7
(g8
g9
NtRp389
(dp390
g12
g13
sg14
S'Noto Sans Devanagari'
p391
sg16
I700
sg17
g13
sg18
g13
sg19
S'/usr/share/fonts/noto/NotoSansDevanagari-Bold.ttf'
p392
sg21
g22
sbag7
(g8
g9
NtRp393
(dp394
g12
g13
sg14
S'Noto Serif Sinhala'
p395
sg16
I400
sg17
g13
sg18
g13
sg19
S'/usr/share/fonts/noto/NotoSerifSinhala-Thin.ttf'
p396
sg21
g22
sbag7
(g8
g9
NtRp397
(dp398
g12
g13
sg14
S'Noto Sans Tamil UI'
p399
sg16
I400
sg17
g13
sg18
g13
sg19
S'/usr/share/fonts/noto/NotoSansTamilUI-Thin.ttf'
p400
sg21
g22
sbag7
(g8
g9
NtRp401
(dp402
g12
g13
sg14
S'Noto Sans Thaana'
p403
sg16
I400
sg17
g13
sg18
g13
sg19
S'/usr/share/fonts/noto/NotoSansThaana-Thin.ttf'
p404
sg21
g22
sbag7
(g8
g9
NtRp405
(dp406
g12
g13
sg14
S'Noto Sans Deseret'
p407
sg16
I400
sg17
g13
sg18
g13
sg19
S'/usr/share/fonts/noto/NotoSansDeseret-Regular.ttf'
p408
sg21
g22
sbag7
(g8
g9
NtRp409
(dp410
g12
g13
sg14
S'Noto Sans Hebrew'
p411
sg16
I400
sg17
g13
sg18
g13
sg19
S'/usr/share/fonts/noto/NotoSansHebrew-Regular.ttf'
p412
sg21
g22
sbag7
(g8
g9
NtRp413
(dp414
g12
g13
sg14
S'Droid Sans Devanagari'
p415
sg16
I400
sg17
g13
sg18
g13
sg19
S'/usr/share/fonts/droid/DroidSansDevanagari-Regular.ttf'
p416
sg21
g22
sbag7
(g8
g9
NtRp417
(dp418
g12
g13
sg14
S'Noto Serif Gurmukhi'
p419
sg16
I400
sg17
g13
sg18
g13
sg19
S'/usr/share/fonts/noto/NotoSerifGurmukhi-Black.ttf'
p420
sg21
g22
sbag7
(g8
g9
NtRp421
(dp422
g12
g13
sg14
S'Noto Serif Hebrew'
p423
sg16
I400
sg17
g13
sg18
g13
sg19
S'/usr/share/fonts/noto/NotoSerifHebrew-Black.ttf'
p424
sg21
g22
sbag7
(g8
g9
NtRp425
(dp426
g12
g13
sg14
S'Noto Sans Hatran'
p427
sg16
I400
sg17
g13
sg18
g13
sg19
S'/usr/share/fonts/noto/NotoSansHatran-Regular.ttf'
p428
sg21
g22
sbag7
(g8
g9
NtRp429
(dp430
g12
g13
sg14
S'Noto Sans Hebrew'
p431
sg16
I400
sg17
g13
sg18
g13
sg19
S'/usr/share/fonts/noto/NotoSansHebrew-Thin.ttf'
p432
sg21
g22
sbag7
(g8
g9
NtRp433
(dp434
g12
g13
sg14
S'Noto Sans Lao'
p435
sg16
I400
sg17
g13
sg18
g13
sg19
S'/usr/share/fonts/noto/NotoSansLao-Light.ttf'
p436
sg21
g22
sbag7
(g8
g9
NtRp437
(dp438
g12
g13
sg14
S'Noto Sans Sinhala'
p439
sg16
I400
sg17
g13
sg18
g13
sg19
S'/usr/share/fonts/noto/NotoSansSinhala-Medium.ttf'
p440
sg21
g22
sbag7
(g8
g9
NtRp441
(dp442
g12
g13
sg14
S'Droid Naskh Shift Alt'
p443
sg16
I400
sg17
g13
sg18
g13
sg19
S'/usr/share/fonts/droid/DroidNaskh-Regular-SystemUI.ttf'
p444
sg21
g22
sbag7
(g8
g9
NtRp445
(dp446
g12
g13
sg14
S'Noto Sans Samaritan'
p447
sg16
I400
sg17
g13
sg18
g13
sg19
S'/usr/share/fonts/noto/NotoSansSamaritan-Regular.ttf'
p448
sg21
g22
sbag7
(g8
g9
NtRp449
(dp450
g12
g13
sg14
S'Noto Sans Myanmar UI'
p451
sg16
I400
sg17
g13
sg18
g13
sg19
S'/usr/share/fonts/noto/NotoSansMyanmarUI-Medium.ttf'
p452
sg21
g22
sbag7
(g8
g9
NtRp453
(dp454
g12
g13
sg14
S'Source Code Pro'
p455
sg16
I500
sg17
g13
sg18
g13
sg19
S'/usr/share/fonts/adobe-source-code-pro/SourceCodePro-Medium.otf'
p456
sg21
g22
sbag7
(g8
g9
NtRp457
(dp458
g12
g13
sg14
S'Noto Sans Lao UI'
p459
sg16
I400
sg17
g13
sg18
g13
sg19
S'/usr/share/fonts/noto/NotoSansLaoUI-Light.ttf'
p460
sg21
g22
sbag7
(g8
g9
NtRp461
(dp462
g12
g13
sg14
S'Noto Serif Khmer'
p463
sg16
I400
sg17
g13
sg18
g13
sg19
S'/usr/share/fonts/noto/NotoSerifKhmer-Regular.ttf'
p464
sg21
g22
sbag7
(g8
g9
NtRp465
(dp466
g12
g13
sg14
S'Noto Serif Devanagari'
p467
sg16
I400
sg17
g13
sg18
g13
sg19
S'/usr/share/fonts/noto/NotoSerifDevanagari-Regular.ttf'
p468
sg21
g22
sbag7
(g8
g9
NtRp469
(dp470
g12
g13
sg14
S'Noto Sans Buhid'
p471
sg16
I400
sg17
g13
sg18
g13
sg19
S'/usr/share/fonts/noto/NotoSansBuhid-Regular.ttf'
p472
sg21
g22
sbag7
(g8
g9
NtRp473
(dp474
g12
g13
sg14
S'Noto Serif Lao'
p475
sg16
I400
sg17
g13
sg18
g13
sg19
S'/usr/share/fonts/noto/NotoSerifLao-Medium.ttf'
p476
sg21
g22
sbag7
(g8
g9
NtRp477
(dp478
g12
g13
sg14
S'Noto Sans Devanagari UI'
p479
sg16
I400
sg17
g13
sg18
g13
sg19
S'/usr/share/fonts/noto/NotoSansDevanagariUI-Regular.ttf'
p480
sg21
g22
sbag7
(g8
g9
NtRp481
(dp482
g12
g13
sg14
S'Noto Sans Sinhala UI'
p483
sg16
I400
sg17
g13
sg18
g13
sg19
S'/usr/share/fonts/noto/NotoSansSinhalaUI-Regular.ttf'
p484
sg21
g22
sbag7
(g8
g9
NtRp485
(dp486
g12
g13
sg14
S'Noto Serif Tamil'
p487
sg16
I400
sg17
g13
sg18
g13
sg19
S'/usr/share/fonts/noto/NotoSerifTamil-Black.ttf'
p488
sg21
g22
sbag7
(g8
g9
NtRp489
(dp490
g12
g13
sg14
S'Akaash'
p491
sg16
I400
sg17
g13
sg18
g13
sg19
S'/usr/share/fonts/TTF/AkaashNormal.ttf'
p492
sg21
g22
sbag7
(g8
g9
NtRp493
(dp494
g12
g41
sg14
S'Noto Sans Display'
p495
sg16
I400
sg17
g13
sg18
g13
sg19
S'/usr/share/fonts/noto/NotoSansDisplay-Italic.ttf'
p496
sg21
g22
sbag7
(g8
g9
NtRp497
(dp498
g12
g13
sg14
S'Noto Serif Gurmukhi'
p499
sg16
I400
sg17
g13
sg18
g13
sg19
S'/usr/share/fonts/noto/NotoSerifGurmukhi-Light.ttf'
p500
sg21
g22
sbag7
(g8
g9
NtRp501
(dp502
g12
g13
sg14
S'P052'
p503
sg16
I700
sg17
g13
sg18
g13
sg19
S'/usr/share/fonts/gsfonts/P052-Bold.otf'
p504
sg21
g22
sbag7
(g8
g9
NtRp505
(dp506
g12
g13
sg14
S'Noto Sans Arabic UI'
p507
sg16
I700
sg17
g13
sg18
g13
sg19
S'/usr/share/fonts/noto/NotoSansArabicUI-Bold.ttf'
p508
sg21
g22
sbag7
(g8
g9
NtRp509
(dp510
g12
g13
sg14
S'Noto Sans Shavian'
p511
sg16
I400
sg17
g13
sg18
g13
sg19
S'/usr/share/fonts/noto/NotoSansShavian-Regular.ttf'
p512
sg21
g22
sbag7
(g8
g9
NtRp513
(dp514
g12
g13
sg14
S'Noto Sans Sora Sompeng'
p515
sg16
I400
sg17
g13
sg18
g13
sg19
S'/usr/share/fonts/noto/NotoSansSoraSompeng-Regular.ttf'
p516
sg21
g22
sbag7
(g8
g9
NtRp517
(dp518
g12
g13
sg14
S'Noto Sans Manichaean'
p519
sg16
I400
sg17
g13
sg18
g13
sg19
S'/usr/share/fonts/noto/NotoSansManichaean-Regular.ttf'
p520
sg21
g22
sbag7
(g8
g9
NtRp521
(dp522
g12
g13
sg14
S'Noto Sans Canadian Aboriginal'
p523
sg16
I700
sg17
g13
sg18
g13
sg19
S'/usr/share/fonts/noto/NotoSansCanadianAboriginal-Bold.ttf'
p524
sg21
g22
sbag7
(g8
g9
NtRp525
(dp526
g12
g13
sg14
S'Noto Sans Armenian'
p527
sg16
I400
sg17
g13
sg18
g13
sg19
S'/usr/share/fonts/noto/NotoSansArmenian-Regular.ttf'
p528
sg21
g22
sbag7
(g8
g9
NtRp529
(dp530
g12
g41
sg14
S'Source Code Pro'
p531
sg16
I200
sg17
g13
sg18
g13
sg19
S'/usr/share/fonts/adobe-source-code-pro/SourceCodePro-LightIt.otf'
p532
sg21
g22
sbag7
(g8
g9
NtRp533
(dp534
g12
g13
sg14
S'Noto Sans Arabic UI'
p535
sg16
I400
sg17
g13
sg18
g13
sg19
S'/usr/share/fonts/noto/NotoSansArabicUI-Light.ttf'
p536
sg21
g22
sbag7
(g8
g9
NtRp537
(dp538
g12
g13
sg14
S'Noto Serif Gujarati'
p539
sg16
I400
sg17
g13
sg18
g13
sg19
S'/usr/share/fonts/noto/NotoSerifGujarati-Black.ttf'
p540
sg21
g22
sbag7
(g8
g9
NtRp541
(dp542
g12
g41
sg14
S'URW Bookman'
p543
sg16
I200
sg17
g13
sg18
g13
sg19
S'/usr/share/fonts/gsfonts/URWBookman-LightItalic.otf'
p544
sg21
g22
sbag7
(g8
g9
NtRp545
(dp546
g12
g13
sg14
S'Noto Serif Kannada'
p547
sg16
I400
sg17
g13
sg18
g13
sg19
S'/usr/share/fonts/noto/NotoSerifKannada-Thin.ttf'
p548
sg21
g22
sbag7
(g8
g9
NtRp549
(dp550
g12
g13
sg14
S'Noto Sans Caucasian Albanian'
p551
sg16
I400
sg17
g13
sg18
g13
sg19
S'/usr/share/fonts/noto/NotoSansCaucasianAlbanian-Regular.ttf'
p552
sg21
g22
sbag7
(g8
g9
NtRp553
(dp554
g12
g13
sg14
S'Noto Sans Syriac'
p555
sg16
I400
sg17
g13
sg18
g13
sg19
S'/usr/share/fonts/noto/NotoSansSyriac-Black.ttf'
p556
sg21
g22
sbag7
(g8
g9
NtRp557
(dp558
g12
g13
sg14
S'Noto Sans Thaana'
p559
sg16
I400
sg17
g13
sg18
g13
sg19
S'/usr/share/fonts/noto/NotoSansThaana-Light.ttf'
p560
sg21
g22
sbag7
(g8
g9
NtRp561
(dp562
g12
g41
sg14
S'Noto Serif Display'
p563
sg16
I400
sg17
g13
sg18
g13
sg19
S'/usr/share/fonts/noto/NotoSerifDisplay-LightItalic.ttf'
p564
sg21
g22
sbag7
(g8
g9
NtRp565
(dp566
g12
g13
sg14
S'Noto Sans Khojki'
p567
sg16
I400
sg17
g13
sg18
g13
sg19
S'/usr/share/fonts/noto/NotoSansKhojki-Regular.ttf'
p568
sg21
g22
sbag7
(g8
g9
NtRp569
(dp570
g12
g13
sg14
S'Noto Sans Khmer UI'
p571
sg16
I700
sg17
g13
sg18
g13
sg19
S'/usr/share/fonts/noto/NotoSansKhmerUI-Bold.ttf'
p572
sg21
g22
sbag7
(g8
g9
NtRp573
(dp574
g12
g13
sg14
S'Noto Serif Gurmukhi'
p575
sg16
I400
sg17
g13
sg18
g13
sg19
S'/usr/share/fonts/noto/NotoSerifGurmukhi-Regular.ttf'
p576
sg21
g22
sbag7
(g8
g9
NtRp577
(dp578
g12
g41
sg14
S'Noto Serif'
p579
sg16
I400
sg17
g13
sg18
g13
sg19
S'/usr/share/fonts/noto/NotoSerif-LightItalic.ttf'
p580
sg21
g22
sbag7
(g8
g9
NtRp581
(dp582
g12
g13
sg14
S'Noto Sans Syriac'
p583
sg16
I400
sg17
g13
sg18
g13
sg19
S'/usr/share/fonts/noto/NotoSansSyriac-Regular.ttf'
p584
sg21
g22
sbag7
(g8
g9
NtRp585
(dp586
g12
g13
sg14
S'Noto Sans'
p587
sg16
I700
sg17
g13
sg18
g13
sg19
S'/usr/share/fonts/noto/NotoSans-Bold.ttf'
p588
sg21
g22
sbag7
(g8
g9
NtRp589
(dp590
g12
g13
sg14
S'Noto Sans Egyptian Hieroglyphs'
p591
sg16
I400
sg17
g13
sg18
g13
sg19
S'/usr/share/fonts/noto/NotoSansEgyptianHieroglyphs-Regular.ttf'
p592
sg21
g22
sbag7
(g8
g9
NtRp593
(dp594
g12
g13
sg14
S'Noto Serif Display'
p595
sg16
I400
sg17
g13
sg18
g13
sg19
S'/usr/share/fonts/noto/NotoSerifDisplay-Black.ttf'
p596
sg21
g22
sbag7
(g8
g9
NtRp597
(dp598
g12
g13
sg14
S'Noto Sans Gurmukhi UI'
p599
sg16
I400
sg17
g13
sg18
g13
sg19
S'/usr/share/fonts/noto/NotoSansGurmukhiUI-Regular.ttf'
p600
sg21
g22
sbag7
(g8
g9
NtRp601
(dp602
g12
g13
sg14
S'Noto Sans Symbols'
p603
sg16
I400
sg17
g13
sg18
g13
sg19
S'/usr/share/fonts/noto/NotoSansSymbols-Black.ttf'
p604
sg21
g22
sbag7
(g8
g9
NtRp605
(dp606
g12
g13
sg14
S'Noto Sans Myanmar UI'
p607
sg16
I400
sg17
g13
sg18
g13
sg19
S'/usr/share/fonts/noto/NotoSansMyanmarUI-Light.ttf'
p608
sg21
g22
sbag7
(g8
g9
NtRp609
(dp610
g12
g13
sg14
S'Noto Sans Canadian Aboriginal'
p611
sg16
I400
sg17
g13
sg18
g13
sg19
S'/usr/share/fonts/noto/NotoSansCanadianAboriginal-Regular.ttf'
p612
sg21
g22
sbag7
(g8
g9
NtRp613
(dp614
g12
g13
sg14
S'AkrutiTml1'
p615
sg16
I700
sg17
g13
sg18
g13
sg19
S'/usr/share/fonts/TTF/akruti1b.ttf'
p616
sg21
g22
sbag7
(g8
g9
NtRp617
(dp618
g12
g13
sg14
S'Noto Sans Old Hungarian'
p619
sg16
I400
sg17
g13
sg18
g13
sg19
S'/usr/share/fonts/noto/NotoSansOldHungarian-Regular.ttf'
p620
sg21
g22
sbag7
(g8
g9
NtRp621
(dp622
g12
g13
sg14
S'Noto Sans Devanagari UI'
p623
sg16
I400
sg17
g13
sg18
g13
sg19
S'/usr/share/fonts/noto/NotoSansDevanagariUI-Medium.ttf'
p624
sg21
g22
sbag7
(g8
g9
NtRp625
(dp626
g12
g13
sg14
S'Droid Serif'
p627
sg16
I400
sg17
g13
sg18
g13
sg19
S'/usr/share/fonts/droid/DroidSerif-Regular.ttf'
p628
sg21
g22
sbag7
(g8
g9
NtRp629
(dp630
g12
g13
sg14
S'Noto Serif Kannada'
p631
sg16
I400
sg17
g13
sg18
g13
sg19
S'/usr/share/fonts/noto/NotoSerifKannada-Regular.ttf'
p632
sg21
g22
sbag7
(g8
g9
NtRp633
(dp634
g12
g13
sg14
S'Noto Sans Tibetan'
p635
sg16
I400
sg17
g13
sg18
g13
sg19
S'/usr/share/fonts/noto/NotoSansTibetan-Regular.ttf'
p636
sg21
g22
sbag7
(g8
g9
NtRp637
(dp638
g12
g13
sg14
S'Noto Serif Malayalam'
p639
sg16
I700
sg17
g13
sg18
g13
sg19
S'/usr/share/fonts/noto/NotoSerifMalayalam-Bold.ttf'
p640
sg21
g22
sbag7
(g8
g9
NtRp641
(dp642
g12
g13
sg14
S'Noto Serif Tamil Slanted'
p643
sg16
I400
sg17
g13
sg18
g13
sg19
S'/usr/share/fonts/noto/NotoSerifTamilSlanted-Medium.ttf'
p644
sg21
g22
sbag7
(g8
g9
NtRp645
(dp646
g12
g13
sg14
S'Noto Serif Gujarati'
p647
sg16
I400
sg17
g13
sg18
g13
sg19
S'/usr/share/fonts/noto/NotoSerifGujarati-Medium.ttf'
p648
sg21
g22
sbag7
(g8
g9
NtRp649
(dp650
g12
g13
sg14
S'Noto Serif Georgian'
p651
sg16
I400
sg17
g13
sg18
g13
sg19
S'/usr/share/fonts/noto/NotoSerifGeorgian-Medium.ttf'
p652
sg21
g22
sbag7
(g8
g9
NtRp653
(dp654
g12
g13
sg14
S'Droid Sans Fallback'
p655
sg16
I400
sg17
g13
sg18
g13
sg19
S'/usr/share/fonts/droid/DroidSansFallbackFull.ttf'
p656
sg21
g22
sbag7
(g8
g9
NtRp657
(dp658
g12
g13
sg14
S'Noto Sans Canadian Aboriginal'
p659
sg16
I400
sg17
g13
sg18
g13
sg19
S'/usr/share/fonts/noto/NotoSansCanadianAboriginal-Light.ttf'
p660
sg21
g22
sbag7
(g8
g9
NtRp661
(dp662
g12
g13
sg14
S'Source Code Pro'
p663
sg16
I700
sg17
g13
sg18
g13
sg19
S'/usr/share/fonts/adobe-source-code-pro/SourceCodePro-Semibold.otf'
p664
sg21
g22
sbag7
(g8
g9
NtRp665
(dp666
g12
g13
sg14
S'Noto Nastaliq Urdu'
p667
sg16
I400
sg17
g13
sg18
g13
sg19
S'/usr/share/fonts/noto/NotoNastaliqUrdu-Regular.ttf'
p668
sg21
g22
sbag7
(g8
g9
NtRp669
(dp670
g12
g13
sg14
S'Noto Sans Old Permic'
p671
sg16
I400
sg17
g13
sg18
g13
sg19
S'/usr/share/fonts/noto/NotoSansOldPermic-Regular.ttf'
p672
sg21
g22
sbag7
(g8
g9
NtRp673
(dp674
g12
g13
sg14
S'Noto Serif Telugu'
p675
sg16
I700
sg17
g13
sg18
g13
sg19
S'/usr/share/fonts/noto/NotoSerifTelugu-Bold.ttf'
p676
sg21
g22
sbag7
(g8
g9
NtRp677
(dp678
g12
g13
sg14
S'Noto Sans Ogham'
p679
sg16
I400
sg17
g13
sg18
g13
sg19
S'/usr/share/fonts/noto/NotoSansOgham-Regular.ttf'
p680
sg21
g22
sbag7
(g8
g9
NtRp681
(dp682
g12
g41
sg14
S'Droid Serif'
p683
sg16
I400
sg17
g13
sg18
g13
sg19
S'/usr/share/fonts/droid/DroidSerif-Italic.ttf'
p684
sg21
g22
sbag7
(g8
g9
NtRp685
(dp686
g12
g41
sg14
S'Noto Serif Display'
p687
sg16
I400
sg17
g13
sg18
g13
sg19
S'/usr/share/fonts/noto/NotoSerifDisplay-ThinItalic.ttf'
p688
sg21
g22
sbag7
(g8
g9
NtRp689
(dp690
g12
g13
sg14
S'Droid Sans Mono'
p691
sg16
I400
sg17
g13
sg18
g13
sg19
S'/usr/share/fonts/droid/DroidSansMono.ttf'
p692
sg21
g22
sbag7
(g8
g9
NtRp693
(dp694
g12
g13
sg14
S'Noto Serif'
p695
sg16
I400
sg17
g13
sg18
g13
sg19
S'/usr/share/fonts/noto/NotoSerif-Thin.ttf'
p696
sg21
g22
sbag7
(g8
g9
NtRp697
(dp698
g12
g13
sg14
S'Noto Serif Hebrew'
p699
sg16
I400
sg17
g13
sg18
g13
sg19
S'/usr/share/fonts/noto/NotoSerifHebrew-Thin.ttf'
p700
sg21
g22
sbag7
(g8
g9
NtRp701
(dp702
g12
g13
sg14
S'Mukti Narrow'
p703
sg16
I700
sg17
g13
sg18
g13
sg19
S'/usr/share/fonts/TTF/ani.ttf'
p704
sg21
g22
sbag7
(g8
g9
NtRp705
(dp706
g12
g13
sg14
S'Noto Sans Bengali'
p707
sg16
I400
sg17
g13
sg18
g13
sg19
S'/usr/share/fonts/noto/NotoSansBengali-Regular.ttf'
p708
sg21
g22
sbag7
(g8
g9
NtRp709
(dp710
g12
g13
sg14
S'Noto Serif Sinhala'
p711
sg16
I400
sg17
g13
sg18
g13
sg19
S'/usr/share/fonts/noto/NotoSerifSinhala-Light.ttf'
p712
sg21
g22
sbag7
(g8
g9
NtRp713
(dp714
g12
g13
sg14
S'Noto Sans Thai'
p715
sg16
I400
sg17
g13
sg18
g13
sg19
S'/usr/share/fonts/noto/NotoSansThai-Regular.ttf'
p716
sg21
g22
sbag7
(g8
g9
NtRp717
(dp718
g12
g13
sg14
S'Noto Sans PhagsPa'
p719
sg16
I400
sg17
g13
sg18
g13
sg19
S'/usr/share/fonts/noto/NotoSansPhagsPa-Regular.ttf'
p720
sg21
g22
sbag7
(g8
g9
NtRp721
(dp722
g12
g13
sg14
S'Droid Sans Ethiopic'
p723
sg16
I700
sg17
g13
sg18
g13
sg19
S'/usr/share/fonts/droid/DroidSansEthiopic-Bold.ttf'
p724
sg21
g22
sbag7
(g8
g9
NtRp725
(dp726
g12
g13
sg14
S'Noto Sans Cypriot'
p727
sg16
I400
sg17
g13
sg18
g13
sg19
S'/usr/share/fonts/noto/NotoSansCypriot-Regular.ttf'
p728
sg21
g22
sbag7
(g8
g9
NtRp729
(dp730
g12
g13
sg14
S'Noto Sans Tai Viet'
p731
sg16
I400
sg17
g13
sg18
g13
sg19
S'/usr/share/fonts/noto/NotoSansTaiViet-Regular.ttf'
p732
sg21
g22
sbag7
(g8
g9
NtRp733
(dp734
g12
g13
sg14
S'Noto Serif Armenian'
p735
sg16
I400
sg17
g13
sg18
g13
sg19
S'/usr/share/fonts/noto/NotoSerifArmenian-Light.ttf'
p736
sg21
g22
sbag7
(g8
g9
NtRp737
(dp738
g12
g41
sg14
S'Droid Serif'
p739
sg16
I700
sg17
g13
sg18
g13
sg19
S'/usr/share/fonts/droid/DroidSerif-BoldItalic.ttf'
p740
sg21
g22
sbag7
(g8
g9
NtRp741
(dp742
g12
g13
sg14
S'Noto Sans Math'
p743
sg16
I400
sg17
g13
sg18
g13
sg19
S'/usr/share/fonts/noto/NotoSansMath-Regular.ttf'
p744
sg21
g22
sbag7
(g8
g9
NtRp745
(dp746
g12
g41
sg14
S'Source Code Pro'
p747
sg16
I200
sg17
g13
sg18
g13
sg19
S'/usr/share/fonts/adobe-source-code-pro/SourceCodePro-ExtraLightIt.otf'
p748
sg21
g22
sbag7
(g8
g9
NtRp749
(dp750
g12
g41
sg14
S'Noto Serif'
p751
sg16
I400
sg17
g13
sg18
g13
sg19
S'/usr/share/fonts/noto/NotoSerif-Italic.ttf'
p752
sg21
g22
sbag7
(g8
g9
NtRp753
(dp754
g12
g13
sg14
S'Noto Mono'
p755
sg16
I400
sg17
g13
sg18
g13
sg19
S'/usr/share/fonts/noto/NotoMono-Regular.ttf/NotoMono-Regular.ttf'
p756
sg21
g22
sbag7
(g8
g9
NtRp757
(dp758
g12
g41
sg14
S'Noto Serif Display'
p759
sg16
I700
sg17
g13
sg18
g13
sg19
S'/usr/share/fonts/noto/NotoSerifDisplay-BoldItalic.ttf'
p760
sg21
g22
sbag7
(g8
g9
NtRp761
(dp762
g12
g13
sg14
S'TAMu_Kadambri'
p763
sg16
I400
sg17
g13
sg18
g13
sg19
S'/usr/share/fonts/TTF/TAMu_Kadampari.ttf'
p764
sg21
g22
sbag7
(g8
g9
NtRp765
(dp766
g12
g13
sg14
S'Inconsolata'
p767
sg16
I700
sg17
g13
sg18
g13
sg19
S'/usr/share/fonts/TTF/Inconsolata-Bold.ttf'
p768
sg21
g22
sbag7
(g8
g9
NtRp769
(dp770
g12
g13
sg14
S'Noto Sans Tamil UI'
p771
sg16
I400
sg17
g13
sg18
g13
sg19
S'/usr/share/fonts/noto/NotoSansTamilUI-Regular.ttf'
p772
sg21
g22
sbag7
(g8
g9
NtRp773
(dp774
g12
g13
sg14
S'Noto Sans Khmer'
p775
sg16
I400
sg17
g13
sg18
g13
sg19
S'/usr/share/fonts/noto/NotoSansKhmer-Thin.ttf'
p776
sg21
g22
sbag7
(g8
g9
NtRp777
(dp778
g12
g13
sg14
S'Noto Sans Tai Le'
p779
sg16
I400
sg17
g13
sg18
g13
sg19
S'/usr/share/fonts/noto/NotoSansTaiLe-Regular.ttf'
p780
sg21
g22
sbag7
(g8
g9
NtRp781
(dp782
g12
g13
sg14
S'Noto Sans Meetei Mayek'
p783
sg16
I400
sg17
g13
sg18
g13
sg19
S'/usr/share/fonts/noto/NotoSansMeeteiMayek-Regular.ttf'
p784
sg21
g22
sbag7
(g8
g9
NtRp785
(dp786
g12
g13
sg14
S'Droid Sans Thai'
p787
sg16
I400
sg17
g13
sg18
g13
sg19
S'/usr/share/fonts/droid/DroidSansThai.ttf'
p788
sg21
g22
sbag7
(g8
g9
NtRp789
(dp790
g12
g13
sg14
S'Noto Serif Georgian'
p791
sg16
I400
sg17
g13
sg18
g13
sg19
S'/usr/share/fonts/noto/NotoSerifGeorgian-Black.ttf'
p792
sg21
g22
sbag7
(g8
g9
NtRp793
(dp794
g12
g13
sg14
S'Noto Sans Imperial Aramaic'
p795
sg16
I400
sg17
g13
sg18
g13
sg19
S'/usr/share/fonts/noto/NotoSansImperialAramaic-Regular.ttf'
p796
sg21
g22
sbag7
(g8
g9
NtRp797
(dp798
g12
g41
sg14
S'Nimbus Sans'
p799
sg16
I700
sg17
g13
sg18
g13
sg19
S'/usr/share/fonts/gsfonts/NimbusSans-BoldItalic.otf'
p800
sg21
g22
sbag7
(g8
g9
NtRp801
(dp802
g12
g13
sg14
S'Noto Sans Old South Arabian'
p803
sg16
I400
sg17
g13
sg18
g13
sg19
S'/usr/share/fonts/noto/NotoSansOldSouthArabian-Regular.ttf'
p804
sg21
g22
sbag7
(g8
g9
NtRp805
(dp806
g12
g13
sg14
S'Noto Sans Telugu'
p807
sg16
I400
sg17
g13
sg18
g13
sg19
S'/usr/share/fonts/noto/NotoSansTelugu-Regular.ttf'
p808
sg21
g22
sbag7
(g8
g9
NtRp809
(dp810
g12
g46
sg14
S'Nimbus Sans Narrow'
p811
sg16
I400
sg17
S'condensed'
p812
sg18
g13
sg19
S'/usr/share/fonts/gsfonts/NimbusSansNarrow-Oblique.otf'
p813
sg21
g22
sbag7
(g8
g9
NtRp814
(dp815
g12
g13
sg14
S'Noto Sans Thai UI'
p816
sg16
I700
sg17
g13
sg18
g13
sg19
S'/usr/share/fonts/noto/NotoSansThaiUI-Bold.ttf'
p817
sg21
g22
sbag7
(g8
g9
NtRp818
(dp819
g12
g13
sg14
S'Noto Sans Malayalam'
p820
sg16
I400
sg17
g13
sg18
g13
sg19
S'/usr/share/fonts/noto/NotoSansMalayalam-Medium.ttf'
p821
sg21
g22
sbag7
(g8
g9
NtRp822
(dp823
g12
g13
sg14
S'Noto Serif Gurmukhi'
p824
sg16
I700
sg17
g13
sg18
g13
sg19
S'/usr/share/fonts/noto/NotoSerifGurmukhi-Bold.ttf'
p825
sg21
g22
sbag7
(g8
g9
NtRp826
(dp827
g12
g13
sg14
S'Noto Sans Lao'
p828
sg16
I400
sg17
g13
sg18
g13
sg19
S'/usr/share/fonts/noto/NotoSansLao-Regular.ttf'
p829
sg21
g22
sbag7
(g8
g9
NtRp830
(dp831
g12
g13
sg14
S'Noto Sans Thai'
p832
sg16
I700
sg17
g13
sg18
g13
sg19
S'/usr/share/fonts/noto/NotoSansThai-Bold.ttf'
p833
sg21
g22
sbag7
(g8
g9
NtRp834
(dp835
g12
g13
sg14
S'Noto Sans Khudawadi'
p836
sg16
I400
sg17
g13
sg18
g13
sg19
S'/usr/share/fonts/noto/NotoSansKhudawadi-Regular.ttf'
p837
sg21
g22
sbag7
(g8
g9
NtRp838
(dp839
g12
g13
sg14
S'Noto Sans Sinhala UI'
p840
sg16
I400
sg17
g13
sg18
g13
sg19
S'/usr/share/fonts/noto/NotoSansSinhalaUI-Black.ttf'
p841
sg21
g22
sbag7
(g8
g9
NtRp842
(dp843
g12
g13
sg14
S'Noto Sans Thai'
p844
sg16
I400
sg17
g13
sg18
g13
sg19
S'/usr/share/fonts/noto/NotoSansThai-Black.ttf'
p845
sg21
g22
sbag7
(g8
g9
NtRp846
(dp847
g12
g13
sg14
S'Noto Sans Devanagari'
p848
sg16
I400
sg17
g13
sg18
g13
sg19
S'/usr/share/fonts/noto/NotoSansDevanagari-Black.ttf'
p849
sg21
g22
sbag7
(g8
g9
NtRp850
(dp851
g12
g13
sg14
S'Noto Sans Lao UI'
p852
sg16
I400
sg17
g13
sg18
g13
sg19
S'/usr/share/fonts/noto/NotoSansLaoUI-Thin.ttf'
p853
sg21
g22
sbag7
(g8
g9
NtRp854
(dp855
g12
g13
sg14
S'Noto Sans Thaana'
p856
sg16
I400
sg17
g13
sg18
g13
sg19
S'/usr/share/fonts/noto/NotoSansThaana-Regular.ttf'
p857
sg21
g22
sbag7
(g8
g9
NtRp858
(dp859
g12
g13
sg14
S'Hack'
p860
sg16
I400
sg17
g13
sg18
g13
sg19
S'/usr/share/fonts/TTF/Hack-Regular.ttf'
p861
sg21
g22
sbag7
(g8
g9
NtRp862
(dp863
g12
g41
sg14
S'Noto Sans Display'
p864
sg16
I400
sg17
g13
sg18
g13
sg19
S'/usr/share/fonts/noto/NotoSansDisplay-ThinItalic.ttf'
p865
sg21
g22
sbag7
(g8
g9
NtRp866
(dp867
g12
g13
sg14
S'Noto Sans Khmer'
p868
sg16
I400
sg17
g13
sg18
g13
sg19
S'/usr/share/fonts/noto/NotoSansKhmer-Black.ttf'
p869
sg21
g22
sbag7
(g8
g9
NtRp870
(dp871
g12
g13
sg14
S'Nimbus Sans'
p872
sg16
I700
sg17
g13
sg18
g13
sg19
S'/usr/share/fonts/gsfonts/NimbusSans-Bold.otf'
p873
sg21
g22
sbag7
(g8
g9
NtRp874
(dp875
g12
g13
sg14
S'Noto Sans Myanmar UI'
p876
sg16
I400
sg17
g13
sg18
g13
sg19
S'/usr/share/fonts/noto/NotoSansMyanmarUI-Black.ttf'
p877
sg21
g22
sbag7
(g8
g9
NtRp878
(dp879
g12
g13
sg14
S'Noto Serif Armenian'
p880
sg16
I400
sg17
g13
sg18
g13
sg19
S'/usr/share/fonts/noto/NotoSerifArmenian-Black.ttf'
p881
sg21
g22
sbag7
(g8
g9
NtRp882
(dp883
g12
g13
sg14
S'Noto Sans Bengali'
p884
sg16
I700
sg17
g13
sg18
g13
sg19
S'/usr/share/fonts/noto/NotoSansBengali-Bold.ttf'
p885
sg21
g22
sbag7
(g8
g9
NtRp886
(dp887
g12
g13
sg14
S'Liberation Mono'
p888
sg16
I700
sg17
g13
sg18
g13
sg19
S'/usr/share/fonts/liberation/LiberationMono-Bold.ttf'
p889
sg21
g22
sbag7
(g8
g9
NtRp890
(dp891
g12
g13
sg14
S'Noto Sans Thai UI'
p892
sg16
I400
sg17
g13
sg18
g13
sg19
S'/usr/share/fonts/noto/NotoSansThaiUI-Thin.ttf'
p893
sg21
g22
sbag7
(g8
g9
NtRp894
(dp895
g12
g13
sg14
S'Hack'
p896
sg16
I700
sg17
g13
sg18
g13
sg19
S'/usr/share/fonts/TTF/Hack-Bold.ttf'
p897
sg21
g22
sbag7
(g8
g9
NtRp898
(dp899
g12
g13
sg14
S'Noto Sans Cham'
p900
sg16
I400
sg17
g13
sg18
g13
sg19
S'/usr/share/fonts/noto/NotoSansCham-Black.ttf'
p901
sg21
g22
sbag7
(g8
g9
NtRp902
(dp903
g12
g13
sg14
S'Noto Sans Nabataean'
p904
sg16
I400
sg17
g13
sg18
g13
sg19
S'/usr/share/fonts/noto/NotoSansNabataean-Regular.ttf'
p905
sg21
g22
sbag7
(g8
g9
NtRp906
(dp907
g12
g13
sg14
S'GurbaniBoliLite'
p908
sg16
I400
sg17
g13
sg18
g13
sg19
S'/usr/share/fonts/TTF/GurbaniBoliLite.ttf'
p909
sg21
g22
sbag7
(g8
g9
NtRp910
(dp911
g12
g13
sg14
S'Noto Sans Georgian'
p912
sg16
I400
sg17
g13
sg18
g13
sg19
S'/usr/share/fonts/noto/NotoSansGeorgian-Black.ttf'
p913
sg21
g22
sbag7
(g8
g9
NtRp914
(dp915
g12
g41
sg14
S'Nimbus Mono PS'
p916
sg16
I400
sg17
g13
sg18
g13
sg19
S'/usr/share/fonts/gsfonts/NimbusMonoPS-Italic.otf'
p917
sg21
g22
sbag7
(g8
g9
NtRp918
(dp919
g12
g41
sg14
S'Noto Sans'
p920
sg16
I400
sg17
g13
sg18
g13
sg19
S'/usr/share/fonts/noto/NotoSans-BlackItalic.ttf'
p921
sg21
g22
sbag7
(g8
g9
NtRp922
(dp923
g12
g13
sg14
S'Noto Sans Georgian'
p924
sg16
I700
sg17
g13
sg18
g13
sg19
S'/usr/share/fonts/noto/NotoSansGeorgian-Bold.ttf'
p925
sg21
g22
sbag7
(g8
g9
NtRp926
(dp927
g12
g13
sg14
S'Noto Sans Osmanya'
p928
sg16
I400
sg17
g13
sg18
g13
sg19
S'/usr/share/fonts/noto/NotoSansOsmanya-Regular.ttf'
p929
sg21
g22
sbag7
(g8
g9
NtRp930
(dp931
g12
g13
sg14
S'Noto Serif Lao'
p932
sg16
I400
sg17
g13
sg18
g13
sg19
S'/usr/share/fonts/noto/NotoSerifLao-Light.ttf'
p933
sg21
g22
sbag7
(g8
g9
NtRp934
(dp935
g12
g41
sg14
S'Noto Serif'
p936
sg16
I400
sg17
g13
sg18
g13
sg19
S'/usr/share/fonts/noto/NotoSerif-ThinItalic.ttf'
p937
sg21
g22
sbag7
(g8
g9
NtRp938
(dp939
g12
g13
sg14
S'Liberation Sans'
p940
sg16
I700
sg17
g13
sg18
g13
sg19
S'/usr/share/fonts/liberation/LiberationSans-Bold.ttf'
p941
sg21
g22
sbag7
(g8
g9
NtRp942
(dp943
g12
g13
sg14
S'Noto Sans Myanmar'
p944
sg16
I400
sg17
g13
sg18
g13
sg19
S'/usr/share/fonts/noto/NotoSansMyanmar-Regular.ttf'
p945
sg21
g22
sbag7
(g8
g9
NtRp946
(dp947
g12
g13
sg14
S'Noto Serif Hebrew'
p948
sg16
I400
sg17
g13
sg18
g13
sg19
S'/usr/share/fonts/noto/NotoSerifHebrew-Light.ttf'
p949
sg21
g22
sbag7
(g8
g9
NtRp950
(dp951
g12
g13
sg14
S'Cantarell'
p952
sg16
I400
sg17
g13
sg18
g13
sg19
S'/usr/share/fonts/cantarell/Cantarell-ExtraBold.otf'
p953
sg21
g22
sbag7
(g8
g9
NtRp954
(dp955
g12
g13
sg14
S'Cantarell'
p956
sg16
I400
sg17
g13
sg18
g13
sg19
S'/usr/share/fonts/cantarell/Cantarell-Regular.otf'
p957
sg21
g22
sbag7
(g8
g9
NtRp958
(dp959
g12
g13
sg14
S'Noto Sans Sharada'
p960
sg16
I400
sg17
g13
sg18
g13
sg19
S'/usr/share/fonts/noto/NotoSansSharada-Regular.ttf'
p961
sg21
g22
sbag7
(g8
g9
NtRp962
(dp963
g12
g13
sg14
S'Noto Sans Carian'
p964
sg16
I400
sg17
g13
sg18
g13
sg19
S'/usr/share/fonts/noto/NotoSansCarian-Regular.ttf'
p965
sg21
g22
sbag7
(g8
g9
NtRp966
(dp967
g12
g13
sg14
S'Noto Sans Adlam Unjoined'
p968
sg16
I400
sg17
g13
sg18
g13
sg19
S'/usr/share/fonts/noto/NotoSansAdlamUnjoined-Regular.ttf'
p969
sg21
g22
sbag7
(g8
g9
NtRp970
(dp971
g12
g13
sg14
S'Source Code Pro'
p972
sg16
I200
sg17
g13
sg18
g13
sg19
S'/usr/share/fonts/adobe-source-code-pro/SourceCodePro-Light.otf'
p973
sg21
g22
sbag7
(g8
g9
NtRp974
(dp975
g12
g13
sg14
S'Noto Sans Khmer'
p976
sg16
I400
sg17
g13
sg18
g13
sg19
S'/usr/share/fonts/noto/NotoSansKhmer-Regular.ttf'
p977
sg21
g22
sbag7
(g8
g9
NtRp978
(dp979
g12
g41
sg14
S'Nimbus Roman'
p980
sg16
I700
sg17
g13
sg18
g13
sg19
S'/usr/share/fonts/gsfonts/NimbusRoman-BoldItalic.otf'
p981
sg21
g22
sbag7
(g8
g9
NtRp982
(dp983
g12
g13
sg14
S'Noto Serif Ethiopic'
p984
sg16
I400
sg17
g13
sg18
g13
sg19
S'/usr/share/fonts/noto/NotoSerifEthiopic-Medium.ttf'
p985
sg21
g22
sbag7
(g8
g9
NtRp986
(dp987
g12
g13
sg14
S'Noto Sans Kaithi'
p988
sg16
I400
sg17
g13
sg18
g13
sg19
S'/usr/share/fonts/noto/NotoSansKaithi-Regular.ttf'
p989
sg21
g22
sbag7
(g8
g9
NtRp990
(dp991
g12
g13
sg14
S'Noto Sans Arabic'
p992
sg16
I400
sg17
g13
sg18
g13
sg19
S'/usr/share/fonts/noto/NotoSansArabic-Medium.ttf'
p993
sg21
g22
sbag7
(g8
g9
NtRp994
(dp995
g12
g13
sg14
S'Noto Sans Tamil'
p996
sg16
I400
sg17
g13
sg18
g13
sg19
S'/usr/share/fonts/noto/NotoSansTamil-Light.ttf'
p997
sg21
g22
sbag7
(g8
g9
NtRp998
(dp999
g12
g13
sg14
S'Noto Sans Ethiopic'
p1000
sg16
I400
sg17
g13
sg18
g13
sg19
S'/usr/share/fonts/noto/NotoSansEthiopic-Light.ttf'
p1001
sg21
g22
sbag7
(g8
g9
NtRp1002
(dp1003
g12
g13
sg14
S'Noto Sans Khmer'
p1004
sg16
I400
sg17
g13
sg18
g13
sg19
S'/usr/share/fonts/noto/NotoSansKhmer-Medium.ttf'
p1005
sg21
g22
sbag7
(g8
g9
NtRp1006
(dp1007
g12
g13
sg14
S'Noto Sans Kayah Li'
p1008
sg16
I400
sg17
g13
sg18
g13
sg19
S'/usr/share/fonts/noto/NotoSansKayahLi-Regular.ttf'
p1009
sg21
g22
sbag7
(g8
g9
NtRp1010
(dp1011
g12
g13
sg14
S'Noto Serif Myanmar'
p1012
sg16
I400
sg17
g13
sg18
g13
sg19
S'/usr/share/fonts/noto/NotoSerifMyanmar-Thin.ttf'
p1013
sg21
g22
sbag7
(g8
g9
NtRp1014
(dp1015
g12
g13
sg14
S'Noto Sans Symbols'
p1016
sg16
I400
sg17
g13
sg18
g13
sg19
S'/usr/share/fonts/noto/NotoSansSymbols-Light.ttf'
p1017
sg21
g22
sbag7
(g8
g9
NtRp1018
(dp1019
g12
g13
sg14
S'TSCu_Paranar'
p1020
sg16
I400
sg17
g13
sg18
g13
sg19
S'/usr/share/fonts/TTF/TSCu_Paranar.ttf'
p1021
sg21
g22
sbag7
(g8
g9
NtRp1022
(dp1023
g12
g13
sg14
S'Noto Sans Bengali'
p1024
sg16
I400
sg17
g13
sg18
g13
sg19
S'/usr/share/fonts/noto/NotoSansBengali-Medium.ttf'
p1025
sg21
g22
sbag7
(g8
g9
NtRp1026
(dp1027
g12
g13
sg14
S'TSCu_Paranar'
p1028
sg16
I700
sg17
g13
sg18
g13
sg19
S'/usr/share/fonts/TTF/TSCu_paranarb.ttf'
p1029
sg21
g22
sbag7
(g8
g9
NtRp1030
(dp1031
g12
g13
sg14
S'Noto Sans Mro'
p1032
sg16
I400
sg17
g13
sg18
g13
sg19
S'/usr/share/fonts/noto/NotoSansMro-Regular.ttf'
p1033
sg21
g22
sbag7
(g8
g9
NtRp1034
(dp1035
g12
g13
sg14
S'Noto Sans'
p1036
sg16
I400
sg17
g13
sg18
g13
sg19
S'/usr/share/fonts/noto/NotoSans-Light.ttf'
p1037
sg21
g22
sbag7
(g8
g9
NtRp1038
(dp1039
g12
g13
sg14
S'Noto Sans Oriya UI'
p1040
sg16
I400
sg17
g13
sg18
g13
sg19
S'/usr/share/fonts/noto/NotoSansOriyaUI-Regular.ttf'
p1041
sg21
g22
sbag7
(g8
g9
NtRp1042
(dp1043
g12
g13
sg14
S'Noto Sans Kannada'
p1044
sg16
I400
sg17
g13
sg18
g13
sg19
S'/usr/share/fonts/noto/NotoSansKannada-Black.ttf'
p1045
sg21
g22
sbag7
(g8
g9
NtRp1046
(dp1047
g12
g41
sg14
S'Noto Sans'
p1048
sg16
I400
sg17
g13
sg18
g13
sg19
S'/usr/share/fonts/noto/NotoSans-Italic.ttf'
p1049
sg21
g22
sbag7
(g8
g9
NtRp1050
(dp1051
g12
g13
sg14
S'Standard Symbols PS'
p1052
sg16
I400
sg17
g13
sg18
g13
sg19
S'/usr/share/fonts/gsfonts/StandardSymbolsPS.otf'
p1053
sg21
g22
sbag7
(g8
g9
NtRp1054
(dp1055
g12
g13
sg14
S'Noto Sans Modi'
p1056
sg16
I400
sg17
g13
sg18
g13
sg19
S'/usr/share/fonts/noto/NotoSansModi-Regular.ttf'
p1057
sg21
g22
sbag7
(g8
g9
NtRp1058
(dp1059
g12
g13
sg14
S'Source Code Pro'
p1060
sg16
I200
sg17
g13
sg18
g13
sg19
S'/usr/share/fonts/adobe-source-code-pro/SourceCodePro-ExtraLight.otf'
p1061
sg21
g22
sbag7
(g8
g9
NtRp1062
(dp1063
g12
g13
sg14
S'Noto Sans Kannada UI'
p1064
sg16
I400
sg17
g13
sg18
g13
sg19
S'/usr/share/fonts/noto/NotoSansKannadaUI-Regular.ttf'
p1065
sg21
g22
sbag7
(g8
g9
NtRp1066
(dp1067
g12
g13
sg14
S'Noto Sans Lisu'
p1068
sg16
I400
sg17
g13
sg18
g13
sg19
S'/usr/share/fonts/noto/NotoSansLisu-Regular.ttf'
p1069
sg21
g22
sbag7
(g8
g9
NtRp1070
(dp1071
g12
g13
sg14
S'Noto Sans Multani'
p1072
sg16
I400
sg17
g13
sg18
g13
sg19
S'/usr/share/fonts/noto/NotoSansMultani-Regular.ttf'
p1073
sg21
g22
sbag7
(g8
g9
NtRp1074
(dp1075
g12
g13
sg14
S'Noto Sans Malayalam'
p1076
sg16
I400
sg17
g13
sg18
g13
sg19
S'/usr/share/fonts/noto/NotoSansMalayalam-Thin.ttf'
p1077
sg21
g22
sbag7
(g8
g9
NtRp1078
(dp1079
g12
g13
sg14
S'Noto Sans Oriya'
p1080
sg16
I700
sg17
g13
sg18
g13
sg19
S'/usr/share/fonts/noto/NotoSansOriya-Bold.ttf'
p1081
sg21
g22
sbag7
(g8
g9
NtRp1082
(dp1083
g12
g13
sg14
S'Noto Sans Duployan'
p1084
sg16
I400
sg17
g13
sg18
g13
sg19
S'/usr/share/fonts/noto/NotoSansDuployan-Regular.ttf'
p1085
sg21
g22
sbag7
(g8
g9
NtRp1086
(dp1087
g12
g41
sg14
S'Noto Sans Display'
p1088
sg16
I400
sg17
g13
sg18
g13
sg19
S'/usr/share/fonts/noto/NotoSansDisplay-BlackItalic.ttf'
p1089
sg21
g22
sbag7
(g8
g9
NtRp1090
(dp1091
g12
g13
sg14
S'Noto Sans Hanunoo'
p1092
sg16
I400
sg17
g13
sg18
g13
sg19
S'/usr/share/fonts/noto/NotoSansHanunoo-Regular.ttf'
p1093
sg21
g22
sbag7
(g8
g9
NtRp1094
(dp1095
g12
g13
sg14
S'Noto Sans Newa'
p1096
sg16
I400
sg17
g13
sg18
g13
sg19
S'/usr/share/fonts/noto/NotoSansNewa-Regular.ttf'
p1097
sg21
g22
sbag7
(g8
g9
NtRp1098
(dp1099
g12
g13
sg14
S'Noto Sans Kannada'
p1100
sg16
I400
sg17
g13
sg18
g13
sg19
S'/usr/share/fonts/noto/NotoSansKannada-Medium.ttf'
p1101
sg21
g22
sbag7
(g8
g9
NtRp1102
(dp1103
g12
g13
sg14
S'Noto Serif Tibetan'
p1104
sg16
I400
sg17
g13
sg18
g13
sg19
S'/usr/share/fonts/noto/NotoSerifTibetan-Regular.ttf'
p1105
sg21
g22
sbag7
(g8
g9
NtRp1106
(dp1107
g12
g13
sg14
S'Noto Kufi Arabic'
p1108
sg16
I700
sg17
g13
sg18
g13
sg19
S'/usr/share/fonts/noto/NotoKufiArabic-Bold.ttf'
p1109
sg21
g22
sbag7
(g8
g9
NtRp1110
(dp1111
g12
g13
sg14
S'Noto Sans Georgian'
p1112
sg16
I400
sg17
g13
sg18
g13
sg19
S'/usr/share/fonts/noto/NotoSansGeorgian-Thin.ttf'
p1113
sg21
g22
sbag7
(g8
g9
NtRp1114
(dp1115
g12
g13
sg14
S'Noto Sans Armenian'
p1116
sg16
I400
sg17
g13
sg18
g13
sg19
S'/usr/share/fonts/noto/NotoSansArmenian-Light.ttf'
p1117
sg21
g22
sbag7
(g8
g9
NtRp1118
(dp1119
g12
g13
sg14
S'Noto Sans Ugaritic'
p1120
sg16
I400
sg17
g13
sg18
g13
sg19
S'/usr/share/fonts/noto/NotoSansUgaritic-Regular.ttf'
p1121
sg21
g22
sbag7
(g8
g9
NtRp1122
(dp1123
g12
g41
sg14
S'Source Code Pro'
p1124
sg16
I700
sg17
g13
sg18
g13
sg19
S'/usr/share/fonts/adobe-source-code-pro/SourceCodePro-SemiboldIt.otf'
p1125
sg21
g22
sbag7
(g8
g9
NtRp1126
(dp1127
g12
g13
sg14
S'Droid Sans Ethiopic'
p1128
sg16
I400
sg17
g13
sg18
g13
sg19
S'/usr/share/fonts/droid/DroidSansEthiopic-Regular.ttf'
p1129
sg21
g22
sbag7
(g8
g9
NtRp1130
(dp1131
g12
g13
sg14
S'Noto Sans Inscriptional Parthian'
p1132
sg16
I400
sg17
g13
sg18
g13
sg19
S'/usr/share/fonts/noto/NotoSansInscriptionalParthian-Regular.ttf'
p1133
sg21
g22
sbag7
(g8
g9
NtRp1134
(dp1135
g12
g13
sg14
S'Noto Sans Tamil UI'
p1136
sg16
I400
sg17
g13
sg18
g13
sg19
S'/usr/share/fonts/noto/NotoSansTamilUI-Black.ttf'
p1137
sg21
g22
sbag7
(g8
g9
NtRp1138
(dp1139
g12
g13
sg14
S'Noto Naskh Arabic UI'
p1140
sg16
I700
sg17
g13
sg18
g13
sg19
S'/usr/share/fonts/noto/NotoNaskhArabicUI-Bold.ttf'
p1141
sg21
g22
sbag7
(g8
g9
NtRp1142
(dp1143
g12
g13
sg14
S'Sampige'
p1144
sg16
I400
sg17
g13
sg18
g13
sg19
S'/usr/share/fonts/TTF/Sampige.ttf'
p1145
sg21
g22
sbag7
(g8
g9
NtRp1146
(dp1147
g12
g13
sg14
S'Droid Arabic Naskh'
p1148
sg16
I700
sg17
g13
sg18
g13
sg19
S'/usr/share/fonts/droid/DroidNaskh-Bold.ttf'
p1149
sg21
g22
sbag7
(g8
g9
NtRp1150
(dp1151
g12
g13
sg14
S'Noto Sans Canadian Aboriginal'
p1152
sg16
I400
sg17
g13
sg18
g13
sg19
S'/usr/share/fonts/noto/NotoSansCanadianAboriginal-Black.ttf'
p1153
sg21
g22
sbag7
(g8
g9
NtRp1154
(dp1155
g12
g13
sg14
S'Noto Sans Arabic UI'
p1156
sg16
I400
sg17
g13
sg18
g13
sg19
S'/usr/share/fonts/noto/NotoSansArabicUI-Regular.ttf'
p1157
sg21
g22
sbag7
(g8
g9
NtRp1158
(dp1159
g12
g13
sg14
S'Noto Serif Gurmukhi'
p1160
sg16
I400
sg17
g13
sg18
g13
sg19
S'/usr/share/fonts/noto/NotoSerifGurmukhi-Medium.ttf'
p1161
sg21
g22
sbag7
(g8
g9
NtRp1162
(dp1163
g12
g13
sg14
S'Noto Nastaliq Urdu'
p1164
sg16
I700
sg17
g13
sg18
g13
sg19
S'/usr/share/fonts/noto/NotoNastaliqUrdu-Bold.ttf'
p1165
sg21
g22
sbag7
(g8
g9
NtRp1166
(dp1167
g12
g13
sg14
S'Noto Kufi Arabic'
p1168
sg16
I400
sg17
g13
sg18
g13
sg19
S'/usr/share/fonts/noto/NotoKufiArabic-Regular.ttf'
p1169
sg21
g22
sbag7
(g8
g9
NtRp1170
(dp1171
g12
g13
sg14
S'Noto Sans Mandaic'
p1172
sg16
I400
sg17
g13
sg18
g13
sg19
S'/usr/share/fonts/noto/NotoSansMandaic-Regular.ttf'
p1173
sg21
g22
sbag7
(g8
g9
NtRp1174
(dp1175
g12
g13
sg14
S'Noto Sans Ethiopic'
p1176
sg16
I700
sg17
g13
sg18
g13
sg19
S'/usr/share/fonts/noto/NotoSansEthiopic-Bold.ttf'
p1177
sg21
g22
sbag7
(g8
g9
NtRp1178
(dp1179
g12
g41
sg14
S'C059'
p1180
sg16
I400
sg17
g13
sg18
g13
sg19
S'/usr/share/fonts/gsfonts/C059-Italic.otf'
p1181
sg21
g22
sbag7
(g8
g9
NtRp1182
(dp1183
g12
g13
sg14
S'TSCu_Times'
p1184
sg16
I400
sg17
g13
sg18
g13
sg19
S'/usr/share/fonts/TTF/TSCu_Times.ttf'
p1185
sg21
g22
sbag7
(g8
g9
NtRp1186
(dp1187
g12
g13
sg14
S'Noto Sans Canadian Aboriginal'
p1188
sg16
I400
sg17
g13
sg18
g13
sg19
S'/usr/share/fonts/noto/NotoSansCanadianAboriginal-Thin.ttf'
p1189
sg21
g22
sbag7
(g8
g9
NtRp1190
(dp1191
g12
g13
sg14
S'Noto Sans Lycian'
p1192
sg16
I400
sg17
g13
sg18
g13
sg19
S'/usr/share/fonts/noto/NotoSansLycian-Regular.ttf'
p1193
sg21
g22
sbag7
(g8
g9
NtRp1194
(dp1195
g12
g13
sg14
S'Noto Sans Malayalam'
p1196
sg16
I400
sg17
g13
sg18
g13
sg19
S'/usr/share/fonts/noto/NotoSansMalayalam-Regular.ttf'
p1197
sg21
g22
sbag7
(g8
g9
NtRp1198
(dp1199
g12
g41
sg14
S'P052'
p1200
sg16
I400
sg17
g13
sg18
g13
sg19
S'/usr/share/fonts/gsfonts/P052-Italic.otf'
p1201
sg21
g22
sbag7
(g8
g9
NtRp1202
(dp1203
g12
g13
sg14
S'Noto Sans Thaana'
p1204
sg16
I700
sg17
g13
sg18
g13
sg19
S'/usr/share/fonts/noto/NotoSansThaana-Bold.ttf'
p1205
sg21
g22
sbag7
(g8
g9
NtRp1206
(dp1207
g12
g13
sg14
S'Noto Serif Thai'
p1208
sg16
I400
sg17
g13
sg18
g13
sg19
S'/usr/share/fonts/noto/NotoSerifThai-Thin.ttf'
p1209
sg21
g22
sbag7
(g8
g9
NtRp1210
(dp1211
g12
g13
sg14
S'Noto Sans Malayalam UI'
p1212
sg16
I400
sg17
g13
sg18
g13
sg19
S'/usr/share/fonts/noto/NotoSansMalayalamUI-Regular.ttf'
p1213
sg21
g22
sbag7
(g8
g9
NtRp1214
(dp1215
g12
g13
sg14
S'Noto Sans Tagalog'
p1216
sg16
I400
sg17
g13
sg18
g13
sg19
S'/usr/share/fonts/noto/NotoSansTagalog-Regular.ttf'
p1217
sg21
g22
sbag7
(g8
g9
NtRp1218
(dp1219
g12
g13
sg14
S'Noto Sans Pahawh Hmong'
p1220
sg16
I400
sg17
g13
sg18
g13
sg19
S'/usr/share/fonts/noto/NotoSansPahawhHmong-Regular.ttf'
p1221
sg21
g22
sbag7
(g8
g9
NtRp1222
(dp1223
g12
g41
sg14
S'Source Code Pro'
p1224
sg16
I400
sg17
g13
sg18
g13
sg19
S'/usr/share/fonts/adobe-source-code-pro/SourceCodePro-It.otf'
p1225
sg21
g22
sbag7
(g8
g9
NtRp1226
(dp1227
g12
g13
sg14
S'Noto Sans Lepcha'
p1228
sg16
I400
sg17
g13
sg18
g13
sg19
S'/usr/share/fonts/noto/NotoSansLepcha-Regular.ttf'
p1229
sg21
g22
sbag7
(g8
g9
NtRp1230
(dp1231
g12
g13
sg14
S'Inconsolata'
p1232
sg16
I400
sg17
g13
sg18
g13
sg19
S'/usr/share/fonts/TTF/Inconsolata-Regular.ttf'
p1233
sg21
g22
sbag7
(g8
g9
NtRp1234
(dp1235
g12
g13
sg14
S'Liberation Serif'
p1236
sg16
I700
sg17
g13
sg18
g13
sg19
S'/usr/share/fonts/liberation/LiberationSerif-Bold.ttf'
p1237
sg21
g22
sbag7
(g8
g9
NtRp1238
(dp1239
g12
g13
sg14
S'Noto Serif Kannada'
p1240
sg16
I700
sg17
g13
sg18
g13
sg19
S'/usr/share/fonts/noto/NotoSerifKannada-Bold.ttf'
p1241
sg21
g22
sbag7
(g8
g9
NtRp1242
(dp1243
g12
g13
sg14
S'Noto Sans Sinhala'
p1244
sg16
I400
sg17
g13
sg18
g13
sg19
S'/usr/share/fonts/noto/NotoSansSinhala-Regular.ttf'
p1245
sg21
g22
sbag7
(g8
g9
NtRp1246
(dp1247
g12
g13
sg14
S'Noto Sans'
p1248
sg16
I400
sg17
g13
sg18
g13
sg19
S'/usr/share/fonts/noto/NotoSans-Regular.ttf'
p1249
sg21
g22
sbag7
(g8
g9
NtRp1250
(dp1251
g12
g41
sg14
S'Noto Serif'
p1252
sg16
I400
sg17
g13
sg18
g13
sg19
S'/usr/share/fonts/noto/NotoSerif-BlackItalic.ttf'
p1253
sg21
g22
sbag7
(g8
g9
NtRp1254
(dp1255
g12
g13
sg14
S'Noto Sans Bengali UI'
p1256
sg16
I400
sg17
g13
sg18
g13
sg19
S'/usr/share/fonts/noto/NotoSansBengaliUI-Black.ttf'
p1257
sg21
g22
sbag7
(g8
g9
NtRp1258
(dp1259
g12
g13
sg14
S'Noto Sans Tamil UI'
p1260
sg16
I400
sg17
g13
sg18
g13
sg19
S'/usr/share/fonts/noto/NotoSansTamilUI-Light.ttf'
p1261
sg21
g22
sbag7
(g8
g9
NtRp1262
(dp1263
g12
g13
sg14
S'Noto Sans Javanese'
p1264
sg16
I700
sg17
g13
sg18
g13
sg19
S'/usr/share/fonts/noto/NotoSansJavanese-Bold.ttf'
p1265
sg21
g22
sbag7
(g8
g9
NtRp1266
(dp1267
g12
g13
sg14
S'Noto Sans Canadian Aboriginal'
p1268
sg16
I400
sg17
g13
sg18
g13
sg19
S'/usr/share/fonts/noto/NotoSansCanadianAboriginal-Medium.ttf'
p1269
sg21
g22
sbag7
(g8
g9
NtRp1270
(dp1271
g12
g13
sg14
S'Nimbus Mono PS'
p1272
sg16
I700
sg17
g13
sg18
g13
sg19
S'/usr/share/fonts/gsfonts/NimbusMonoPS-Bold.otf'
p1273
sg21
g22
sbag7
(g8
g9
NtRp1274
(dp1275
g12
g13
sg14
S'malayalam'
p1276
sg16
I400
sg17
g13
sg18
g13
sg19
S'/usr/share/fonts/TTF/malayalam.ttf'
p1277
sg21
g22
sbag7
(g8
g9
NtRp1278
(dp1279
g12
g13
sg14
S'Noto Sans Khmer UI'
p1280
sg16
I400
sg17
g13
sg18
g13
sg19
S'/usr/share/fonts/noto/NotoSansKhmerUI-Thin.ttf'
p1281
sg21
g22
sbag7
(g8
g9
NtRp1282
(dp1283
g12
g13
sg14
S'Noto Sans Tamil'
p1284
sg16
I400
sg17
g13
sg18
g13
sg19
S'/usr/share/fonts/noto/NotoSansTamil-Regular.ttf'
p1285
sg21
g22
sbag7
(g8
g9
NtRp1286
(dp1287
g12
g13
sg14
S'Noto Serif Gujarati'
p1288
sg16
I400
sg17
g13
sg18
g13
sg19
S'/usr/share/fonts/noto/NotoSerifGujarati-Light.ttf'
p1289
sg21
g22
sbag7
(g8
g9
NtRp1290
(dp1291
g12
g13
sg14
S'Cantarell'
p1292
sg16
I700
sg17
g13
sg18
g13
sg19
S'/usr/share/fonts/cantarell/Cantarell-Bold.otf'
p1293
sg21
g22
sbag7
(g8
g9
NtRp1294
(dp1295
g12
g41
sg14
S'Liberation Sans'
p1296
sg16
I700
sg17
g13
sg18
g13
sg19
S'/usr/share/fonts/liberation/LiberationSans-BoldItalic.ttf'
p1297
sg21
g22
sbag7
(g8
g9
NtRp1298
(dp1299
g12
g13
sg14
S'Noto Serif Display'
p1300
sg16
I400
sg17
g13
sg18
g13
sg19
S'/usr/share/fonts/noto/NotoSerifDisplay-Regular.ttf'
p1301
sg21
g22
sbag7
(g8
g9
NtRp1302
(dp1303
g12
g13
sg14
S'Noto Sans Linear B'
p1304
sg16
I400
sg17
g13
sg18
g13
sg19
S'/usr/share/fonts/noto/NotoSansLinearB-Regular.ttf'
p1305
sg21
g22
sbag7
(g8
g9
NtRp1306
(dp1307
g12
g13
sg14
S'Noto Sans Miao'
p1308
sg16
I400
sg17
g13
sg18
g13
sg19
S'/usr/share/fonts/noto/NotoSansMiao-Regular.ttf'
p1309
sg21
g22
sbag7
(g8
g9
NtRp1310
(dp1311
g12
g13
sg14
S'AkrutiMal1'
p1312
sg16
I400
sg17
g13
sg18
g13
sg19
S'/usr/share/fonts/TTF/mal1-n.ttf'
p1313
sg21
g22
sbag7
(g8
g9
NtRp1314
(dp1315
g12
g41
sg14
S'Noto Sans Display'
p1316
sg16
I700
sg17
g13
sg18
g13
sg19
S'/usr/share/fonts/noto/NotoSansDisplay-BoldItalic.ttf'
p1317
sg21
g22
sbag7
(g8
g9
NtRp1318
(dp1319
g12
g13
sg14
S'Noto Sans Lao UI'
p1320
sg16
I700
sg17
g13
sg18
g13
sg19
S'/usr/share/fonts/noto/NotoSansLaoUI-Bold.ttf'
p1321
sg21
g22
sbag7
(g8
g9
NtRp1322
(dp1323
g12
g13
sg14
S'Noto Serif Myanmar'
p1324
sg16
I400
sg17
g13
sg18
g13
sg19
S'/usr/share/fonts/noto/NotoSerifMyanmar-Light.ttf'
p1325
sg21
g22
sbag7
(g8
g9
NtRp1326
(dp1327
g12
g13
sg14
S'padmaa'
p1328
sg16
I400
sg17
g13
sg18
g13
sg19
S'/usr/share/fonts/TTF/padmaa-Medium-0.5.ttf'
p1329
sg21
g22
sbag7
(g8
g9
NtRp1330
(dp1331
g12
g13
sg14
S'Noto Serif Lao'
p1332
sg16
I400
sg17
g13
sg18
g13
sg19
S'/usr/share/fonts/noto/NotoSerifLao-Regular.ttf'
p1333
sg21
g22
sbag7
(g8
g9
NtRp1334
(dp1335
g12
g13
sg14
S'TAMu_Maduram'
p1336
sg16
I400
sg17
g13
sg18
g13
sg19
S'/usr/share/fonts/TTF/TAMu_Maduram.ttf'
p1337
sg21
g22
sbag7
(g8
g9
NtRp1338
(dp1339
g12
g13
sg14
S'Noto Serif Myanmar'
p1340
sg16
I400
sg17
g13
sg18
g13
sg19
S'/usr/share/fonts/noto/NotoSerifMyanmar-Medium.ttf'
p1341
sg21
g22
sbag7
(g8
g9
NtRp1342
(dp1343
g12
g46
sg14
S'Nimbus Sans Narrow'
p1344
sg16
I700
sg17
g812
sg18
g13
sg19
S'/usr/share/fonts/gsfonts/NimbusSansNarrow-BoldOblique.otf'
p1345
sg21
g22
sbag7
(g8
g9
NtRp1346
(dp1347
g12
g13
sg14
S'Noto Sans Arabic UI'
p1348
sg16
I400
sg17
g13
sg18
g13
sg19
S'/usr/share/fonts/noto/NotoSansArabicUI-Medium.ttf'
p1349
sg21
g22
sbag7
(g8
g9
NtRp1350
(dp1351
g12
g13
sg14
S'Noto Sans Devanagari UI'
p1352
sg16
I700
sg17
g13
sg18
g13
sg19
S'/usr/share/fonts/noto/NotoSansDevanagariUI-Bold.ttf'
p1353
sg21
g22
sbag7
(g8
g9
NtRp1354
(dp1355
g12
g13
sg14
S'Noto Sans Devanagari'
p1356
sg16
I400
sg17
g13
sg18
g13
sg19
S'/usr/share/fonts/noto/NotoSansDevanagari-Regular.ttf'
p1357
sg21
g22
sbag7
(g8
g9
NtRp1358
(dp1359
g12
g13
sg14
S'Noto Sans Kharoshthi'
p1360
sg16
I400
sg17
g13
sg18
g13
sg19
S'/usr/share/fonts/noto/NotoSansKharoshthi-Regular.ttf'
p1361
sg21
g22
sbag7
(g8
g9
NtRp1362
(dp1363
g12
g13
sg14
S'Noto Serif'
p1364
sg16
I400
sg17
g13
sg18
g13
sg19
S'/usr/share/fonts/noto/NotoSerif-Regular.ttf'
p1365
sg21
g22
sbag7
(g8
g9
NtRp1366
(dp1367
g12
g13
sg14
S'Noto Sans Georgian'
p1368
sg16
I400
sg17
g13
sg18
g13
sg19
S'/usr/share/fonts/noto/NotoSansGeorgian-Light.ttf'
p1369
sg21
g22
sbag7
(g8
g9
NtRp1370
(dp1371
g12
g13
sg14
S'AkrutiTml2'
p1372
sg16
I700
sg17
g13
sg18
g13
sg19
S'/usr/share/fonts/TTF/akruti2b.ttf'
p1373
sg21
g22
sbag7
(g8
g9
NtRp1374
(dp1375
g12
g13
sg14
S'Noto Sans Mono'
p1376
sg16
I400
sg17
g13
sg18
g13
sg19
S'/usr/share/fonts/noto/NotoSansMono-Black.ttf'
p1377
sg21
g22
sbag7
(g8
g9
NtRp1378
(dp1379
g12
g13
sg14
S'Source Code Variable'
p1380
sg16
I400
sg17
g13
sg18
g13
sg19
S'/usr/share/fonts/adobe-source-code-pro/SourceCodeVariable-Roman.otf'
p1381
sg21
g22
sbag7
(g8
g9
NtRp1382
(dp1383
g12
g13
sg14
S'Noto Sans Display'
p1384
sg16
I700
sg17
g13
sg18
g13
sg19
S'/usr/share/fonts/noto/NotoSansDisplay-Bold.ttf'
p1385
sg21
g22
sbag7
(g8
g9
NtRp1386
(dp1387
g12
g13
sg14
S'Noto Sans Ethiopic'
p1388
sg16
I400
sg17
g13
sg18
g13
sg19
S'/usr/share/fonts/noto/NotoSansEthiopic-Regular.ttf'
p1389
sg21
g22
sbag7
(g8
g9
NtRp1390
(dp1391
g12
g13
sg14
S'Noto Serif Tamil'
p1392
sg16
I400
sg17
g13
sg18
g13
sg19
S'/usr/share/fonts/noto/NotoSerifTamil-Thin.ttf'
p1393
sg21
g22
sbag7
(g8
g9
NtRp1394
(dp1395
g12
g13
sg14
S'Noto Sans Telugu UI'
p1396
sg16
I400
sg17
g13
sg18
g13
sg19
S'/usr/share/fonts/noto/NotoSansTeluguUI-Regular.ttf'
p1397
sg21
g22
sbag7
(g8
g9
NtRp1398
(dp1399
g12
g13
sg14
S'Noto Serif Kannada'
p1400
sg16
I400
sg17
g13
sg18
g13
sg19
S'/usr/share/fonts/noto/NotoSerifKannada-Medium.ttf'
p1401
sg21
g22
sbag7
(g8
g9
NtRp1402
(dp1403
g12
g13
sg14
S'Noto Serif Sinhala'
p1404
sg16
I700
sg17
g13
sg18
g13
sg19
S'/usr/share/fonts/noto/NotoSerifSinhala-Bold.ttf'
p1405
sg21
g22
sbag7
(g8
g9
NtRp1406
(dp1407
g12
g41
sg14
S'Noto Serif'
p1408
sg16
I700
sg17
g13
sg18
g13
sg19
S'/usr/share/fonts/noto/NotoSerif-BoldItalic.ttf'
p1409
sg21
g22
sbag7
(g8
g9
NtRp1410
(dp1411
g12
g13
sg14
S'Noto Serif Thai'
p1412
sg16
I400
sg17
g13
sg18
g13
sg19
S'/usr/share/fonts/noto/NotoSerifThai-Black.ttf'
p1413
sg21
g22
sbag7
(g8
g9
NtRp1414
(dp1415
g12
g13
sg14
S'Sagar'
p1416
sg16
I400
sg17
g13
sg18
g13
sg19
S'/usr/share/fonts/TTF/SagarNormal.ttf'
p1417
sg21
g22
sbag7
(g8
g9
NtRp1418
(dp1419
g12
g13
sg14
S'Noto Sans Symbols'
p1420
sg16
I400
sg17
g13
sg18
g13
sg19
S'/usr/share/fonts/noto/NotoSansSymbols-Thin.ttf'
p1421
sg21
g22
sbag7
(g8
g9
NtRp1422
(dp1423
g12
g13
sg14
S'Noto Sans Malayalam UI'
p1424
sg16
I400
sg17
g13
sg18
g13
sg19
S'/usr/share/fonts/noto/NotoSansMalayalamUI-Black.ttf'
p1425
sg21
g22
sbag7
(g8
g9
NtRp1426
(dp1427
g12
g13
sg14
S'Noto Sans Devanagari'
p1428
sg16
I400
sg17
g13
sg18
g13
sg19
S'/usr/share/fonts/noto/NotoSansDevanagari-Medium.ttf'
p1429
sg21
g22
sbag7
(g8
g9
NtRp1430
(dp1431
g12
g13
sg14
S'Noto Sans Tamil'
p1432
sg16
I400
sg17
g13
sg18
g13
sg19
S'/usr/share/fonts/noto/NotoSansTamil-Black.ttf'
p1433
sg21
g22
sbag7
(g8
g9
NtRp1434
(dp1435
g12
g13
sg14
S'P052'
p1436
sg16
I500
sg17
g13
sg18
g13
sg19
S'/usr/share/fonts/gsfonts/P052-Roman.otf'
p1437
sg21
g22
sbag7
(g8
g9
NtRp1438
(dp1439
g12
g13
sg14
S'Noto Sans Bengali'
p1440
sg16
I400
sg17
g13
sg18
g13
sg19
S'/usr/share/fonts/noto/NotoSansBengali-Black.ttf'
p1441
sg21
g22
sbag7
(g8
g9
NtRp1442
(dp1443
g12
g13
sg14
S'Noto Sans NKo'
p1444
sg16
I400
sg17
g13
sg18
g13
sg19
S'/usr/share/fonts/noto/NotoSansNKo-Regular.ttf'
p1445
sg21
g22
sbag7
(g8
g9
NtRp1446
(dp1447
g12
g41
sg14
S'Noto Serif Display'
p1448
sg16
I400
sg17
g13
sg18
g13
sg19
S'/usr/share/fonts/noto/NotoSerifDisplay-Italic.ttf'
p1449
sg21
g22
sbag7
(g8
g9
NtRp1450
(dp1451
g12
g13
sg14
S'Noto Sans Lao'
p1452
sg16
I400
sg17
g13
sg18
g13
sg19
S'/usr/share/fonts/noto/NotoSansLao-Thin.ttf'
p1453
sg21
g22
sbag7
(g8
g9
NtRp1454
(dp1455
g12
g13
sg14
S'Nimbus Roman'
p1456
sg16
I500
sg17
g13
sg18
g13
sg19
S'/usr/share/fonts/gsfonts/NimbusRoman-Regular.otf'
p1457
sg21
g22
sbag7
(g8
g9
NtRp1458
(dp1459
g12
g13
sg14
S'Noto Sans Sinhala'
p1460
sg16
I400
sg17
g13
sg18
g13
sg19
S'/usr/share/fonts/noto/NotoSansSinhala-Black.ttf'
p1461
sg21
g22
sbag7
(g8
g9
NtRp1462
(dp1463
g12
g13
sg14
S'Noto Sans Arabic UI'
p1464
sg16
I400
sg17
g13
sg18
g13
sg19
S'/usr/share/fonts/noto/NotoSansArabicUI-Thin.ttf'
p1465
sg21
g22
sbag7
(g8
g9
NtRp1466
(dp1467
g12
g13
sg14
S'AkrutiMal1'
p1468
sg16
I700
sg17
g13
sg18
g13
sg19
S'/usr/share/fonts/TTF/mal1-b.ttf'
p1469
sg21
g22
sbag7
(g8
g9
NtRp1470
(dp1471
g12
g13
sg14
S'Noto Serif Ahom'
p1472
sg16
I400
sg17
g13
sg18
g13
sg19
S'/usr/share/fonts/noto/NotoSerifAhom-Regular.ttf'
p1473
sg21
g22
sbag7
(g8
g9
NtRp1474
(dp1475
g12
g13
sg14
S'Noto Sans Arabic'
p1476
sg16
I700
sg17
g13
sg18
g13
sg19
S'/usr/share/fonts/noto/NotoSansArabic-Bold.ttf'
p1477
sg21
g22
sbag7
(g8
g9
NtRp1478
(dp1479
g12
g13
sg14
S'Noto Sans Malayalam UI'
p1480
sg16
I700
sg17
g13
sg18
g13
sg19
S'/usr/share/fonts/noto/NotoSansMalayalamUI-Bold.ttf'
p1481
sg21
g22
sbag7
(g8
g9
NtRp1482
(dp1483
g12
g13
sg14
S'Noto Sans Display'
p1484
sg16
I400
sg17
g13
sg18
g13
sg19
S'/usr/share/fonts/noto/NotoSansDisplay-Black.ttf'
p1485
sg21
g22
sbag7
(g8
g9
NtRp1486
(dp1487
g12
g13
sg14
S'Droid Sans Georgian'
p1488
sg16
I400
sg17
g13
sg18
g13
sg19
S'/usr/share/fonts/droid/DroidSansGeorgian.ttf'
p1489
sg21
g22
sbag7
(g8
g9
NtRp1490
(dp1491
g12
g13
sg14
S'Noto Sans Kannada'
p1492
sg16
I400
sg17
g13
sg18
g13
sg19
S'/usr/share/fonts/noto/NotoSansKannada-Thin.ttf'
p1493
sg21
g22
sbag7
(g8
g9
NtRp1494
(dp1495
g12
g41
sg14
S'URW Bookman'
p1496
sg16
I600
sg17
g13
sg18
g13
sg19
S'/usr/share/fonts/gsfonts/URWBookman-DemiItalic.otf'
p1497
sg21
g22
sbag7
(g8
g9
NtRp1498
(dp1499
g12
g13
sg14
S'Noto Sans Bassa Vah'
p1500
sg16
I400
sg17
g13
sg18
g13
sg19
S'/usr/share/fonts/noto/NotoSansBassaVah-Regular.ttf'
p1501
sg21
g22
sbag7
(g8
g9
NtRp1502
(dp1503
g12
g13
sg14
S'Noto Serif Lao'
p1504
sg16
I400
sg17
g13
sg18
g13
sg19
S'/usr/share/fonts/noto/NotoSerifLao-Thin.ttf'
p1505
sg21
g22
sbag7
(g8
g9
NtRp1506
(dp1507
g12
g41
sg14
S'Liberation Mono'
p1508
sg16
I400
sg17
g13
sg18
g13
sg19
S'/usr/share/fonts/liberation/LiberationMono-Italic.ttf'
p1509
sg21
g22
sbag7
(g8
g9
NtRp1510
(dp1511
g12
g13
sg14
S'Noto Sans Arabic'
p1512
sg16
I400
sg17
g13
sg18
g13
sg19
S'/usr/share/fonts/noto/NotoSansArabic-Thin.ttf'
p1513
sg21
g22
sbag7
(g8
g9
NtRp1514
(dp1515
g12
g13
sg14
S'Noto Serif Ethiopic'
p1516
sg16
I700
sg17
g13
sg18
g13
sg19
S'/usr/share/fonts/noto/NotoSerifEthiopic-Bold.ttf'
p1517
sg21
g22
sbag7
(g8
g9
NtRp1518
(dp1519
g12
g13
sg14
S'Noto Sans Vai'
p1520
sg16
I400
sg17
g13
sg18
g13
sg19
S'/usr/share/fonts/noto/NotoSansVai-Regular.ttf'
p1521
sg21
g22
sbag7
(g8
g9
NtRp1522
(dp1523
g12
g13
sg14
S'Noto Sans Tirhuta'
p1524
sg16
I400
sg17
g13
sg18
g13
sg19
S'/usr/share/fonts/noto/NotoSansTirhuta-Regular.ttf'
p1525
sg21
g22
sbag7
(g8
g9
NtRp1526
(dp1527
g12
g13
sg14
S'Noto Sans Lao'
p1528
sg16
I400
sg17
g13
sg18
g13
sg19
S'/usr/share/fonts/noto/NotoSansLao-Black.ttf'
p1529
sg21
g22
sbag7
(g8
g9
NtRp1530
(dp1531
g12
g41
sg14
S'Gargi-1.2b'
p1532
sg16
I400
sg17
g13
sg18
g13
sg19
S'/usr/share/fonts/TTF/Gargi-1.2b.ttf'
p1533
sg21
g22
sbag7
(g8
g9
NtRp1534
(dp1535
g12
g13
sg14
S'Noto Sans Myanmar UI'
p1536
sg16
I400
sg17
g13
sg18
g13
sg19
S'/usr/share/fonts/noto/NotoSansMyanmarUI-Thin.ttf'
p1537
sg21
g22
sbag7
(g8
g9
NtRp1538
(dp1539
g12
g13
sg14
S'Noto Sans Tagbanwa'
p1540
sg16
I400
sg17
g13
sg18
g13
sg19
S'/usr/share/fonts/noto/NotoSansTagbanwa-Regular.ttf'
p1541
sg21
g22
sbag7
(g8
g9
NtRp1542
(dp1543
g12
g13
sg14
S'Noto Sans'
p1544
sg16
I400
sg17
g13
sg18
g13
sg19
S'/usr/share/fonts/noto/NotoSans-Thin.ttf'
p1545
sg21
g22
sbag7
(g8
g9
NtRp1546
(dp1547
g12
g13
sg14
S'Noto Naskh Arabic UI'
p1548
sg16
I400
sg17
g13
sg18
g13
sg19
S'/usr/share/fonts/noto/NotoNaskhArabicUI-Regular.ttf'
p1549
sg21
g22
sbag7
(g8
g9
NtRp1550
(dp1551
g12
g13
sg14
S'Noto Serif Devanagari'
p1552
sg16
I700
sg17
g13
sg18
g13
sg19
S'/usr/share/fonts/noto/NotoSerifDevanagari-Bold.ttf'
p1553
sg21
g22
sbag7
(g8
g9
NtRp1554
(dp1555
g12
g13
sg14
S'Noto Sans Myanmar UI'
p1556
sg16
I400
sg17
g13
sg18
g13
sg19
S'/usr/share/fonts/noto/NotoSansMyanmarUI-Regular.ttf'
p1557
sg21
g22
sbag7
(g8
g9
NtRp1558
(dp1559
g12
g13
sg14
S'Noto Sans Hebrew'
p1560
sg16
I700
sg17
g13
sg18
g13
sg19
S'/usr/share/fonts/noto/NotoSansHebrew-Bold.ttf'
p1561
sg21
g22
sbag7
(g8
g9
NtRp1562
(dp1563
g12
g13
sg14
S'Noto Serif Armenian'
p1564
sg16
I700
sg17
g13
sg18
g13
sg19
S'/usr/share/fonts/noto/NotoSerifArmenian-Bold.ttf'
p1565
sg21
g22
sbag7
(g8
g9
NtRp1566
(dp1567
g12
g13
sg14
S'Noto Sans Cherokee'
p1568
sg16
I400
sg17
g13
sg18
g13
sg19
S'/usr/share/fonts/noto/NotoSansCherokee-Black.ttf'
p1569
sg21
g22
sbag7
(g8
g9
NtRp1570
(dp1571
g12
g13
sg14
S'Noto Sans Devanagari UI'
p1572
sg16
I400
sg17
g13
sg18
g13
sg19
S'/usr/share/fonts/noto/NotoSansDevanagariUI-Thin.ttf'
p1573
sg21
g22
sbag7
(g8
g9
NtRp1574
(dp1575
g12
g13
sg14
S'Noto Sans Sinhala'
p1576
sg16
I400
sg17
g13
sg18
g13
sg19
S'/usr/share/fonts/noto/NotoSansSinhala-Light.ttf'
p1577
sg21
g22
sbag7
(g8
g9
NtRp1578
(dp1579
g12
g13
sg14
S'Noto Sans Tibetan'
p1580
sg16
I700
sg17
g13
sg18
g13
sg19
S'/usr/share/fonts/noto/NotoSansTibetan-Bold.ttf'
p1581
sg21
g22
sbag7
(g8
g9
NtRp1582
(dp1583
g12
g13
sg14
S'Pothana2000'
p1584
sg16
I400
sg17
g13
sg18
g13
sg19
S'/usr/share/fonts/TTF/Pothana2000.ttf'
p1585
sg21
g22
sbag7
(g8
g9
NtRp1586
(dp1587
g12
g13
sg14
S'Noto Serif Myanmar'
p1588
sg16
I400
sg17
g13
sg18
g13
sg19
S'/usr/share/fonts/noto/NotoSerifMyanmar-Black.ttf'
p1589
sg21
g22
sbag7
(g8
g9
NtRp1590
(dp1591
g12
g13
sg14
S'Noto Sans Saurashtra'
p1592
sg16
I400
sg17
g13
sg18
g13
sg19
S'/usr/share/fonts/noto/NotoSansSaurashtra-Regular.ttf'
p1593
sg21
g22
sbag7
(g8
g9
NtRp1594
(dp1595
g12
g13
sg14
S'Noto Sans Old North Arabian'
p1596
sg16
I400
sg17
g13
sg18
g13
sg19
S'/usr/share/fonts/noto/NotoSansOldNorthArabian-Regular.ttf'
p1597
sg21
g22
sbag7
(g8
g9
NtRp1598
(dp1599
g12
g13
sg14
S'Noto Serif Bengali'
p1600
sg16
I400
sg17
g13
sg18
g13
sg19
S'/usr/share/fonts/noto/NotoSerifBengali-Regular.ttf'
p1601
sg21
g22
sbag7
(g8
g9
NtRp1602
(dp1603
g12
g13
sg14
S'Noto Sans Malayalam UI'
p1604
sg16
I400
sg17
g13
sg18
g13
sg19
S'/usr/share/fonts/noto/NotoSansMalayalamUI-Medium.ttf'
p1605
sg21
g22
sbag7
(g8
g9
NtRp1606
(dp1607
g12
g13
sg14
S'Noto Sans Mahajani'
p1608
sg16
I400
sg17
g13
sg18
g13
sg19
S'/usr/share/fonts/noto/NotoSansMahajani-Regular.ttf'
p1609
sg21
g22
sbag7
(g8
g9
NtRp1610
(dp1611
g12
g13
sg14
S'Noto Sans Oriya UI'
p1612
sg16
I700
sg17
g13
sg18
g13
sg19
S'/usr/share/fonts/noto/NotoSansOriyaUI-Bold.ttf'
p1613
sg21
g22
sbag7
(g8
g9
NtRp1614
(dp1615
g12
g13
sg14
S'Noto Sans Kannada UI'
p1616
sg16
I400
sg17
g13
sg18
g13
sg19
S'/usr/share/fonts/noto/NotoSansKannadaUI-Black.ttf'
p1617
sg21
g22
sbag7
(g8
g9
NtRp1618
(dp1619
g12
g13
sg14
S'Noto Sans Myanmar'
p1620
sg16
I400
sg17
g13
sg18
g13
sg19
S'/usr/share/fonts/noto/NotoSansMyanmar-Thin.ttf'
p1621
sg21
g22
sbag7
(g8
g9
NtRp1622
(dp1623
g12
g41
sg14
S'TSCu_Paranar'
p1624
sg16
I400
sg17
g13
sg18
g13
sg19
S'/usr/share/fonts/TTF/TSCu_paranari.ttf'
p1625
sg21
g22
sbag7
(g8
g9
NtRp1626
(dp1627
g12
g13
sg14
S'D050000L'
p1628
sg16
I400
sg17
g13
sg18
g13
sg19
S'/usr/share/fonts/gsfonts/D050000L.otf'
p1629
sg21
g22
sbag7
(g8
g9
NtRp1630
(dp1631
g12
g13
sg14
S'Noto Sans Cherokee'
p1632
sg16
I400
sg17
g13
sg18
g13
sg19
S'/usr/share/fonts/noto/NotoSansCherokee-Regular.ttf'
p1633
sg21
g22
sbag7
(g8
g9
NtRp1634
(dp1635
g12
g13
sg14
S'Noto Sans Sinhala UI'
p1636
sg16
I400
sg17
g13
sg18
g13
sg19
S'/usr/share/fonts/noto/NotoSansSinhalaUI-Light.ttf'
p1637
sg21
g22
sbag7
(g8
g9
NtRp1638
(dp1639
g12
g41
sg14
S'Hack'
p1640
sg16
I400
sg17
g13
sg18
g13
sg19
S'/usr/share/fonts/TTF/Hack-Italic.ttf'
p1641
sg21
g22
sbag7
(g8
g9
NtRp1642
(dp1643
g12
g13
sg14
S'Noto Sans Lydian'
p1644
sg16
I400
sg17
g13
sg18
g13
sg19
S'/usr/share/fonts/noto/NotoSansLydian-Regular.ttf'
p1645
sg21
g22
sbag7
(g8
g9
NtRp1646
(dp1647
g12
g13
sg14
S'Noto Sans Gujarati UI'
p1648
sg16
I700
sg17
g13
sg18
g13
sg19
S'/usr/share/fonts/noto/NotoSansGujaratiUI-Bold.ttf'
p1649
sg21
g22
sbag7
(g8
g9
NtRp1650
(dp1651
g12
g13
sg14
S'Noto Sans Old Persian'
p1652
sg16
I400
sg17
g13
sg18
g13
sg19
S'/usr/share/fonts/noto/NotoSansOldPersian-Regular.ttf'
p1653
sg21
g22
sbag7
(g8
g9
NtRp1654
(dp1655
g12
g13
sg14
S'Noto Sans Cham'
p1656
sg16
I400
sg17
g13
sg18
g13
sg19
S'/usr/share/fonts/noto/NotoSansCham-Medium.ttf'
p1657
sg21
g22
sbag7
(g8
g9
NtRp1658
(dp1659
g12
g13
sg14
S'Noto Serif Gujarati'
p1660
sg16
I400
sg17
g13
sg18
g13
sg19
S'/usr/share/fonts/noto/NotoSerifGujarati-Thin.ttf'
p1661
sg21
g22
sbag7
(g8
g9
NtRp1662
(dp1663
g12
g13
sg14
S'Noto Serif Hebrew'
p1664
sg16
I700
sg17
g13
sg18
g13
sg19
S'/usr/share/fonts/noto/NotoSerifHebrew-Bold.ttf'
p1665
sg21
g22
sbag7
(g8
g9
NtRp1666
(dp1667
g12
g13
sg14
S'Noto Sans Elbasan'
p1668
sg16
I400
sg17
g13
sg18
g13
sg19
S'/usr/share/fonts/noto/NotoSansElbasan-Regular.ttf'
p1669
sg21
g22
sbag7
(g8
g9
NtRp1670
(dp1671
g12
g13
sg14
S'Noto Sans Javanese'
p1672
sg16
I400
sg17
g13
sg18
g13
sg19
S'/usr/share/fonts/noto/NotoSansJavanese-Regular.ttf'
p1673
sg21
g22
sbag7
(g8
g9
NtRp1674
(dp1675
g12
g13
sg14
S'Droid Arabic Kufi'
p1676
sg16
I700
sg17
g13
sg18
g13
sg19
S'/usr/share/fonts/droid/DroidKufi-Bold.ttf'
p1677
sg21
g22
sbag7
(g8
g9
NtRp1678
(dp1679
g12
g13
sg14
S'Noto Sans Sinhala UI'
p1680
sg16
I400
sg17
g13
sg18
g13
sg19
S'/usr/share/fonts/noto/NotoSansSinhalaUI-Medium.ttf'
p1681
sg21
g22
sbag7
(g8
g9
NtRp1682
(dp1683
g12
g13
sg14
S'Noto Sans Anatolian Hieroglyphs'
p1684
sg16
I400
sg17
g13
sg18
g13
sg19
S'/usr/share/fonts/noto/NotoSansAnatolianHieroglyphs-Regular.ttf'
p1685
sg21
g22
sbag7
(g8
g9
NtRp1686
(dp1687
g12
g13
sg14
S'Noto Serif Display'
p1688
sg16
I400
sg17
g13
sg18
g13
sg19
S'/usr/share/fonts/noto/NotoSerifDisplay-Thin.ttf'
p1689
sg21
g22
sbag7
(g8
g9
NtRp1690
(dp1691
g12
g13
sg14
S'Noto Serif'
p1692
sg16
I700
sg17
g13
sg18
g13
sg19
S'/usr/share/fonts/noto/NotoSerif-Bold.ttf'
p1693
sg21
g22
sbag7
(g8
g9
NtRp1694
(dp1695
g12
g13
sg14
S'Noto Sans Sinhala'
p1696
sg16
I700
sg17
g13
sg18
g13
sg19
S'/usr/share/fonts/noto/NotoSansSinhala-Bold.ttf'
p1697
sg21
g22
sbag7
(g8
g9
NtRp1698
(dp1699
g12
g13
sg14
S'Noto Sans Syloti Nagri'
p1700
sg16
I400
sg17
g13
sg18
g13
sg19
S'/usr/share/fonts/noto/NotoSansSylotiNagri-Regular.ttf'
p1701
sg21
g22
sbag7
(g8
g9
NtRp1702
(dp1703
g12
g13
sg14
S'Noto Sans Sundanese'
p1704
sg16
I400
sg17
g13
sg18
g13
sg19
S'/usr/share/fonts/noto/NotoSansSundanese-Regular.ttf'
p1705
sg21
g22
sbag7
(g8
g9
NtRp1706
(dp1707
g12
g13
sg14
S'Noto Serif Khmer'
p1708
sg16
I700
sg17
g13
sg18
g13
sg19
S'/usr/share/fonts/noto/NotoSerifKhmer-Bold.ttf'
p1709
sg21
g22
sbag7
(g8
g9
NtRp1710
(dp1711
g12
g13
sg14
S'Droid Sans Japanese'
p1712
sg16
I400
sg17
g13
sg18
g13
sg19
S'/usr/share/fonts/droid/DroidSansJapanese.ttf'
p1713
sg21
g22
sbag7
(g8
g9
NtRp1714
(dp1715
g12
g13
sg14
S'Noto Sans Display'
p1716
sg16
I400
sg17
g13
sg18
g13
sg19
S'/usr/share/fonts/noto/NotoSansDisplay-Medium.ttf'
p1717
sg21
g22
sbag7
(g8
g9
NtRp1718
(dp1719
g12
g13
sg14
S'Noto Sans Tamil'
p1720
sg16
I400
sg17
g13
sg18
g13
sg19
S'/usr/share/fonts/noto/NotoSansTamil-Medium.ttf'
p1721
sg21
g22
sbag7
(g8
g9
NtRp1722
(dp1723
g12
g13
sg14
S'Noto Serif Gujarati'
p1724
sg16
I400
sg17
g13
sg18
g13
sg19
S'/usr/share/fonts/noto/NotoSerifGujarati-Regular.ttf'
p1725
sg21
g22
sbag7
(g8
g9
NtRp1726
(dp1727
g12
g46
sg14
S'URW Gothic'
p1728
sg16
I400
sg17
g13
sg18
g13
sg19
S'/usr/share/fonts/gsfonts/URWGothic-BookOblique.otf'
p1729
sg21
g22
sbag7
(g8
g9
NtRp1730
(dp1731
g12
g13
sg14
S'Noto Sans Lao'
p1732
sg16
I700
sg17
g13
sg18
g13
sg19
S'/usr/share/fonts/noto/NotoSansLao-Bold.ttf'
p1733
sg21
g22
sbag7
(g8
g9
NtRp1734
(dp1735
g12
g13
sg14
S'Noto Sans Cuneiform'
p1736
sg16
I400
sg17
g13
sg18
g13
sg19
S'/usr/share/fonts/noto/NotoSansCuneiform-Regular.ttf'
p1737
sg21
g22
sbag7
(g8
g9
NtRp1738
(dp1739
g12
g13
sg14
S'Noto Sans Thai UI'
p1740
sg16
I400
sg17
g13
sg18
g13
sg19
S'/usr/share/fonts/noto/NotoSansThaiUI-Light.ttf'
p1741
sg21
g22
sbag7
(g8
g9
NtRp1742
(dp1743
g12
g13
sg14
S'Noto Sans Bengali UI'
p1744
sg16
I400
sg17
g13
sg18
g13
sg19
S'/usr/share/fonts/noto/NotoSansBengaliUI-Medium.ttf'
p1745
sg21
g22
sbag7
(g8
g9
NtRp1746
(dp1747
g12
g13
sg14
S'Noto Sans Thai'
p1748
sg16
I400
sg17
g13
sg18
g13
sg19
S'/usr/share/fonts/noto/NotoSansThai-Medium.ttf'
p1749
sg21
g22
sbag7
(g8
g9
NtRp1750
(dp1751
g12
g13
sg14
S'Mukti Narrow'
p1752
sg16
I400
sg17
g13
sg18
g13
sg19
S'/usr/share/fonts/TTF/MuktiNarrow.ttf'
p1753
sg21
g22
sbag7
(g8
g9
NtRp1754
(dp1755
g12
g41
sg14
S'Hack'
p1756
sg16
I700
sg17
g13
sg18
g13
sg19
S'/usr/share/fonts/TTF/Hack-BoldItalic.ttf'
p1757
sg21
g22
sbag7
(g8
g9
NtRp1758
(dp1759
g12
g13
sg14
S'Noto Sans Mono'
p1760
sg16
I400
sg17
g13
sg18
g13
sg19
S'/usr/share/fonts/noto/NotoSansMono-Regular.ttf'
p1761
sg21
g22
sbag7
(g8
g9
NtRp1762
(dp1763
g12
g41
sg14
S'Noto Sans'
p1764
sg16
I700
sg17
g13
sg18
g13
sg19
S'/usr/share/fonts/noto/NotoSans-BoldItalic.ttf'
p1765
sg21
g22
sbag7
(g8
g9
NtRp1766
(dp1767
g12
g13
sg14
S'Noto Serif Ethiopic'
p1768
sg16
I400
sg17
g13
sg18
g13
sg19
S'/usr/share/fonts/noto/NotoSerifEthiopic-Regular.ttf'
p1769
sg21
g22
sbag7
(g8
g9
NtRp1770
(dp1771
g12
g13
sg14
S'Noto Serif Thai'
p1772
sg16
I400
sg17
g13
sg18
g13
sg19
S'/usr/share/fonts/noto/NotoSerifThai-Regular.ttf'
p1773
sg21
g22
sbag7
(g8
g9
NtRp1774
(dp1775
g12
g13
sg14
S'Noto Sans Sinhala UI'
p1776
sg16
I400
sg17
g13
sg18
g13
sg19
S'/usr/share/fonts/noto/NotoSansSinhalaUI-Thin.ttf'
p1777
sg21
g22
sbag7
(g8
g9
NtRp1778
(dp1779
g12
g13
sg14
S'Noto Serif Tamil Slanted'
p1780
sg16
I700
sg17
g13
sg18
g13
sg19
S'/usr/share/fonts/noto/NotoSerifTamilSlanted-Bold.ttf'
p1781
sg21
g22
sbag7
(g8
g9
NtRp1782
(dp1783
g12
g13
sg14
S'Noto Sans Devanagari'
p1784
sg16
I400
sg17
g13
sg18
g13
sg19
S'/usr/share/fonts/noto/NotoSansDevanagari-Light.ttf'
p1785
sg21
g22
sbag7
(g8
g9
NtRp1786
(dp1787
g12
g41
sg14
S'Noto Sans Display'
p1788
sg16
I400
sg17
g13
sg18
g13
sg19
S'/usr/share/fonts/noto/NotoSansDisplay-MediumItalic.ttf'
p1789
sg21
g22
sbag7
(g8
g9
NtRp1790
(dp1791
g12
g41
sg14
S'Liberation Mono'
p1792
sg16
I700
sg17
g13
sg18
g13
sg19
S'/usr/share/fonts/liberation/LiberationMono-BoldItalic.ttf'
p1793
sg21
g22
sbag7
(g8
g9
NtRp1794
(dp1795
g12
g13
sg14
S'Noto Serif Tamil Slanted'
p1796
sg16
I400
sg17
g13
sg18
g13
sg19
S'/usr/share/fonts/noto/NotoSerifTamilSlanted-Black.ttf'
p1797
sg21
g22
sbag7
(g8
g9
NtRp1798
(dp1799
g12
g13
sg14
S'Noto Sans Myanmar'
p1800
sg16
I700
sg17
g13
sg18
g13
sg19
S'/usr/share/fonts/noto/NotoSansMyanmar-Bold.ttf'
p1801
sg21
g22
sbag7
(g8
g9
NtRp1802
(dp1803
g12
g13
sg14
S'Noto Sans Grantha'
p1804
sg16
I400
sg17
g13
sg18
g13
sg19
S'/usr/share/fonts/noto/NotoSansGrantha-Regular.ttf'
p1805
sg21
g22
sbag7
(g8
g9
NtRp1806
(dp1807
g12
g13
sg14
S'Noto Serif Tamil'
p1808
sg16
I400
sg17
g13
sg18
g13
sg19
S'/usr/share/fonts/noto/NotoSerifTamil-Medium.ttf'
p1809
sg21
g22
sbag7
(g8
g9
NtRp1810
(dp1811
g12
g13
sg14
S'Noto Serif Tamil'
p1812
sg16
I400
sg17
g13
sg18
g13
sg19
S'/usr/share/fonts/noto/NotoSerifTamil-Light.ttf'
p1813
sg21
g22
sbag7
(g8
g9
NtRp1814
(dp1815
g12
g13
sg14
S'Noto Sans Bengali UI'
p1816
sg16
I400
sg17
g13
sg18
g13
sg19
S'/usr/share/fonts/noto/NotoSansBengaliUI-Light.ttf'
p1817
sg21
g22
sbag7
(g8
g9
NtRp1818
(dp1819
g12
g13
sg14
S'Noto Sans Kannada'
p1820
sg16
I400
sg17
g13
sg18
g13
sg19
S'/usr/share/fonts/noto/NotoSansKannada-Regular.ttf'
p1821
sg21
g22
sbag7
(g8
g9
NtRp1822
(dp1823
g12
g13
sg14
S'Noto Serif Telugu'
p1824
sg16
I400
sg17
g13
sg18
g13
sg19
S'/usr/share/fonts/noto/NotoSerifTelugu-Regular.ttf'
p1825
sg21
g22
sbag7
(g8
g9
NtRp1826
(dp1827
g12
g13
sg14
S'Noto Sans Malayalam UI'
p1828
sg16
I400
sg17
g13
sg18
g13
sg19
S'/usr/share/fonts/noto/NotoSansMalayalamUI-Light.ttf'
p1829
sg21
g22
sbag7
(g8
g9
NtRp1830
(dp1831
g12
g13
sg14
S'Liberation Serif'
p1832
sg16
I400
sg17
g13
sg18
g13
sg19
S'/usr/share/fonts/liberation/LiberationSerif-Regular.ttf'
p1833
sg21
g22
sbag7
(g8
g9
NtRp1834
(dp1835
g12
g13
sg14
S'AkrutiTml1'
p1836
sg16
I400
sg17
g13
sg18
g13
sg19
S'/usr/share/fonts/TTF/akruti1.ttf'
p1837
sg21
g22
sbag7
(g8
g9
NtRp1838
(dp1839
g12
g41
sg14
S'Source Code Pro'
p1840
sg16
I500
sg17
g13
sg18
g13
sg19
S'/usr/share/fonts/adobe-source-code-pro/SourceCodePro-MediumIt.otf'
p1841
sg21
g22
sbag7
(g8
g9
NtRp1842
(dp1843
g12
g13
sg14
S'URW Gothic'
p1844
sg16
I400
sg17
g13
sg18
g13
sg19
S'/usr/share/fonts/gsfonts/URWGothic-Book.otf'
p1845
sg21
g22
sbag7
(g8
g9
NtRp1846
(dp1847
g12
g41
sg14
S'Liberation Serif'
p1848
sg16
I400
sg17
g13
sg18
g13
sg19
S'/usr/share/fonts/liberation/LiberationSerif-Italic.ttf'
p1849
sg21
g22
sbag7
(g8
g9
NtRp1850
(dp1851
g12
g13
sg14
S'Noto Serif Thai'
p1852
sg16
I400
sg17
g13
sg18
g13
sg19
S'/usr/share/fonts/noto/NotoSerifThai-Light.ttf'
p1853
sg21
g22
sbag7
(g8
g9
NtRp1854
(dp1855
g12
g13
sg14
S'Noto Sans Myanmar'
p1856
sg16
I400
sg17
g13
sg18
g13
sg19
S'/usr/share/fonts/noto/NotoSansMyanmar-Light.ttf'
p1857
sg21
g22
sbag7
(g8
g9
NtRp1858
(dp1859
g12
g13
sg14
S'Nimbus Sans Narrow'
p1860
sg16
I700
sg17
g812
sg18
g13
sg19
S'/usr/share/fonts/gsfonts/NimbusSansNarrow-Bold.otf'
p1861
sg21
g22
sbag7
(g8
g9
NtRp1862
(dp1863
g12
g13
sg14
S'Noto Sans Gujarati'
p1864
sg16
I400
sg17
g13
sg18
g13
sg19
S'/usr/share/fonts/noto/NotoSansGujarati-Regular.ttf'
p1865
sg21
g22
sbag7
(g8
g9
NtRp1866
(dp1867
g12
g13
sg14
S'Noto Sans Tifinagh'
p1868
sg16
I400
sg17
g13
sg18
g13
sg19
S'/usr/share/fonts/noto/NotoSansTifinagh-Regular.ttf'
p1869
sg21
g22
sbag7
(g8
g9
NtRp1870
(dp1871
g12
g13
sg14
S'Noto Sans Devanagari'
p1872
sg16
I400
sg17
g13
sg18
g13
sg19
S'/usr/share/fonts/noto/NotoSansDevanagari-Thin.ttf'
p1873
sg21
g22
sbag7
(g8
g9
NtRp1874
(dp1875
g12
g13
sg14
S'Noto Sans Kannada UI'
p1876
sg16
I400
sg17
g13
sg18
g13
sg19
S'/usr/share/fonts/noto/NotoSansKannadaUI-Thin.ttf'
p1877
sg21
g22
sbag7
(g8
g9
NtRp1878
(dp1879
g12
g13
sg14
S'Noto Serif Display'
p1880
sg16
I400
sg17
g13
sg18
g13
sg19
S'/usr/share/fonts/noto/NotoSerifDisplay-Light.ttf'
p1881
sg21
g22
sbag7
(g8
g9
NtRp1882
(dp1883
g12
g13
sg14
S'Noto Serif Kannada'
p1884
sg16
I400
sg17
g13
sg18
g13
sg19
S'/usr/share/fonts/noto/NotoSerifKannada-Black.ttf'
p1885
sg21
g22
sbag7
(g8
g9
NtRp1886
(dp1887
g12
g13
sg14
S'Noto Sans Georgian'
p1888
sg16
I400
sg17
g13
sg18
g13
sg19
S'/usr/share/fonts/noto/NotoSansGeorgian-Medium.ttf'
p1889
sg21
g22
sbag7
(g8
g9
NtRp1890
(dp1891
g12
g41
sg14
S'Z003'
p1892
sg16
I500
sg17
g13
sg18
g13
sg19
S'/usr/share/fonts/gsfonts/Z003-MediumItalic.otf'
p1893
sg21
g22
sbag7
(g8
g9
NtRp1894
(dp1895
g12
g13
sg14
S'Noto Sans Khmer UI'
p1896
sg16
I400
sg17
g13
sg18
g13
sg19
S'/usr/share/fonts/noto/NotoSansKhmerUI-Medium.ttf'
p1897
sg21
g22
sbag7
(g8
g9
NtRp1898
(dp1899
g12
g41
sg14
S'Nimbus Sans'
p1900
sg16
I400
sg17
g13
sg18
g13
sg19
S'/usr/share/fonts/gsfonts/NimbusSans-Italic.otf'
p1901
sg21
g22
sbag7
(g8
g9
NtRp1902
(dp1903
g12
g13
sg14
S'Noto Sans Mono'
p1904
sg16
I400
sg17
g13
sg18
g13
sg19
S'/usr/share/fonts/noto/NotoSansMono-Light.ttf'
p1905
sg21
g22
sbag7
(g8
g9
NtRp1906
(dp1907
g12
g13
sg14
S'Noto Serif Tibetan'
p1908
sg16
I700
sg17
g13
sg18
g13
sg19
S'/usr/share/fonts/noto/NotoSerifTibetan-Bold.ttf'
p1909
sg21
g22
sbag7
(g8
g9
NtRp1910
(dp1911
g12
g13
sg14
S'Noto Sans Gurmukhi'
p1912
sg16
I400
sg17
g13
sg18
g13
sg19
S'/usr/share/fonts/noto/NotoSansGurmukhi-Regular.ttf'
p1913
sg21
g22
sbag7
(g8
g9
NtRp1914
(dp1915
g12
g13
sg14
S'URW Bookman'
p1916
sg16
I600
sg17
g13
sg18
g13
sg19
S'/usr/share/fonts/gsfonts/URWBookman-Demi.otf'
p1917
sg21
g22
sbag7
(g8
g9
NtRp1918
(dp1919
g12
g13
sg14
S'Noto Sans Arabic'
p1920
sg16
I400
sg17
g13
sg18
g13
sg19
S'/usr/share/fonts/noto/NotoSansArabic-Black.ttf'
p1921
sg21
g22
sbag7
(g8
g9
NtRp1922
(dp1923
g12
g13
sg14
S'Noto Serif Khmer'
p1924
sg16
I400
sg17
g13
sg18
g13
sg19
S'/usr/share/fonts/noto/NotoSerifKhmer-Black.ttf'
p1925
sg21
g22
sbag7
(g8
g9
NtRp1926
(dp1927
g12
g13
sg14
S'Noto Sans Symbols'
p1928
sg16
I400
sg17
g13
sg18
g13
sg19
S'/usr/share/fonts/noto/NotoSansSymbols-Medium.ttf'
p1929
sg21
g22
sbag7
(g8
g9
NtRp1930
(dp1931
g12
g13
sg14
S'Noto Serif Armenian'
p1932
sg16
I400
sg17
g13
sg18
g13
sg19
S'/usr/share/fonts/noto/NotoSerifArmenian-Regular.ttf'
p1933
sg21
g22
sbag7
(g8
g9
NtRp1934
(dp1935
g12
g13
sg14
S'Noto Sans Armenian'
p1936
sg16
I400
sg17
g13
sg18
g13
sg19
S'/usr/share/fonts/noto/NotoSansArmenian-Black.ttf'
p1937
sg21
g22
sbag7
(g8
g9
NtRp1938
(dp1939
g12
g13
sg14
S'Noto Sans Warang Citi'
p1940
sg16
I400
sg17
g13
sg18
g13
sg19
S'/usr/share/fonts/noto/NotoSansWarangCiti-Regular.ttf'
p1941
sg21
g22
sbag7
(g8
g9
NtRp1942
(dp1943
g12
g41
sg14
S'Noto Sans Display'
p1944
sg16
I400
sg17
g13
sg18
g13
sg19
S'/usr/share/fonts/noto/NotoSansDisplay-LightItalic.ttf'
p1945
sg21
g22
sbag7
(g8
g9
NtRp1946
(dp1947
g12
g13
sg14
S'Noto Sans Myanmar UI'
p1948
sg16
I700
sg17
g13
sg18
g13
sg19
S'/usr/share/fonts/noto/NotoSansMyanmarUI-Bold.ttf'
p1949
sg21
g22
sbag7
(g8
g9
NtRp1950
(dp1951
g12
g13
sg14
S'Droid Sans Arabic'
p1952
sg16
I400
sg17
g13
sg18
g13
sg19
S'/usr/share/fonts/droid/DroidSansArabic.ttf'
p1953
sg21
g22
sbag7
(g8
g9
NtRp1954
(dp1955
g12
g13
sg14
S'Noto Sans Gurmukhi'
p1956
sg16
I700
sg17
g13
sg18
g13
sg19
S'/usr/share/fonts/noto/NotoSansGurmukhi-Bold.ttf'
p1957
sg21
g22
sbag7
(g8
g9
NtRp1958
(dp1959
g12
g13
sg14
S'Noto Serif Georgian'
p1960
sg16
I700
sg17
g13
sg18
g13
sg19
S'/usr/share/fonts/noto/NotoSerifGeorgian-Bold.ttf'
p1961
sg21
g22
sbag7
(g8
g9
NtRp1962
(dp1963
g12
g41
sg14
S'Liberation Serif'
p1964
sg16
I700
sg17
g13
sg18
g13
sg19
S'/usr/share/fonts/liberation/LiberationSerif-BoldItalic.ttf'
p1965
sg21
g22
sbag7
(g8
g9
NtRp1966
(dp1967
g12
g13
sg14
S'Noto Sans Malayalam UI'
p1968
sg16
I400
sg17
g13
sg18
g13
sg19
S'/usr/share/fonts/noto/NotoSansMalayalamUI-Thin.ttf'
p1969
sg21
g22
sbag7
(g8
g9
NtRp1970
(dp1971
g12
g13
sg14
S'Noto Sans Bengali UI'
p1972
sg16
I400
sg17
g13
sg18
g13
sg19
S'/usr/share/fonts/noto/NotoSansBengaliUI-Regular.ttf'
p1973
sg21
g22
sbag7
(g8
g9
NtRp1974
(dp1975
g12
g13
sg14
S'Droid Sans Fallback'
p1976
sg16
I400
sg17
g13
sg18
g13
sg19
S'/usr/share/fonts/droid/DroidSansFallbackLegacy.ttf'
p1977
sg21
g22
sbag7
(g8
g9
NtRp1978
(dp1979
g12
g41
sg14
S'Source Code Pro'
p1980
sg16
I700
sg17
g13
sg18
g13
sg19
S'/usr/share/fonts/adobe-source-code-pro/SourceCodePro-BoldIt.otf'
p1981
sg21
g22
sbag7
(g8
g9
NtRp1982
(dp1983
g12
g13
sg14
S'URW Gothic'
p1984
sg16
I600
sg17
g13
sg18
g13
sg19
S'/usr/share/fonts/gsfonts/URWGothic-Demi.otf'
p1985
sg21
g22
sbag7
(g8
g9
NtRp1986
(dp1987
g12
g13
sg14
S'Noto Sans Tai Tham'
p1988
sg16
I400
sg17
g13
sg18
g13
sg19
S'/usr/share/fonts/noto/NotoSansTaiTham-Regular.ttf'
p1989
sg21
g22
sbag7
(g8
g9
NtRp1990
(dp1991
g12
g13
sg14
S'Noto Sans Kannada UI'
p1992
sg16
I400
sg17
g13
sg18
g13
sg19
S'/usr/share/fonts/noto/NotoSansKannadaUI-Light.ttf'
p1993
sg21
g22
sbag7
(g8
g9
NtRp1994
(dp1995
g12
g13
sg14
S'Noto Sans Coptic'
p1996
sg16
I400
sg17
g13
sg18
g13
sg19
S'/usr/share/fonts/noto/NotoSansCoptic-Regular.ttf'
p1997
sg21
g22
sbag7
(g8
g9
NtRp1998
(dp1999
g12
g13
sg14
S'Noto Serif Display'
p2000
sg16
I700
sg17
g13
sg18
g13
sg19
S'/usr/share/fonts/noto/NotoSerifDisplay-Bold.ttf'
p2001
sg21
g22
sbag7
(g8
g9
NtRp2002
(dp2003
g12
g13
sg14
S'Noto Sans Armenian'
p2004
sg16
I400
sg17
g13
sg18
g13
sg19
S'/usr/share/fonts/noto/NotoSansArmenian-Medium.ttf'
p2005
sg21
g22
sbag7
(g8
g9
NtRp2006
(dp2007
g12
g13
sg14
S'Noto Serif'
p2008
sg16
I400
sg17
g13
sg18
g13
sg19
S'/usr/share/fonts/noto/NotoSerif-Medium.ttf'
p2009
sg21
g22
sbag7
(g8
g9
NtRp2010
(dp2011
g12
g13
sg14
S'Noto Sans Kannada UI'
p2012
sg16
I700
sg17
g13
sg18
g13
sg19
S'/usr/share/fonts/noto/NotoSansKannadaUI-Bold.ttf'
p2013
sg21
g22
sbag7
(g8
g9
NtRp2014
(dp2015
g12
g13
sg14
S'Noto Sans Rejang'
p2016
sg16
I400
sg17
g13
sg18
g13
sg19
S'/usr/share/fonts/noto/NotoSansRejang-Regular.ttf'
p2017
sg21
g22
sbag7
(g8
g9
NtRp2018
(dp2019
g12
g13
sg14
S'Noto Sans Buginese'
p2020
sg16
I400
sg17
g13
sg18
g13
sg19
S'/usr/share/fonts/noto/NotoSansBuginese-Regular.ttf'
p2021
sg21
g22
sbag7
(g8
g9
NtRp2022
(dp2023
g12
g13
sg14
S'Noto Sans Glagolitic'
p2024
sg16
I400
sg17
g13
sg18
g13
sg19
S'/usr/share/fonts/noto/NotoSansGlagolitic-Regular.ttf'
p2025
sg21
g22
sbag7
(g8
g9
NtRp2026
(dp2027
g12
g13
sg14
S'TSCu_Comic'
p2028
sg16
I400
sg17
g13
sg18
g13
sg19
S'/usr/share/fonts/TTF/TSCu_Comic.ttf'
p2029
sg21
g22
sbag7
(g8
g9
NtRp2030
(dp2031
g12
g13
sg14
S'Noto Serif Tibetan'
p2032
sg16
I400
sg17
g13
sg18
g13
sg19
S'/usr/share/fonts/noto/NotoSerifTibetan-Thin.ttf'
p2033
sg21
g22
sbag7
(g8
g9
NtRp2034
(dp2035
g12
g13
sg14
S'Noto Serif Khmer'
p2036
sg16
I400
sg17
g13
sg18
g13
sg19
S'/usr/share/fonts/noto/NotoSerifKhmer-Thin.ttf'
p2037
sg21
g22
sbag7
(g8
g9
NtRp2038
(dp2039
g12
g13
sg14
S'Noto Sans Cham'
p2040
sg16
I700
sg17
g13
sg18
g13
sg19
S'/usr/share/fonts/noto/NotoSansCham-Bold.ttf'
p2041
sg21
g22
sbag7
(g8
g9
NtRp2042
(dp2043
g12
g13
sg14
S'GurbaniBoliLite'
p2044
sg16
I400
sg17
g13
sg18
g13
sg19
S'/usr/share/fonts/TTF/gbolilite.ttf'
p2045
sg21
g22
sbag7
(g8
g9
NtRp2046
(dp2047
g12
g13
sg14
S'Droid Sans Hebrew'
p2048
sg16
I400
sg17
g13
sg18
g13
sg19
S'/usr/share/fonts/droid/DroidSansHebrew-Regular.ttf'
p2049
sg21
g22
sbag7
(g8
g9
NtRp2050
(dp2051
g12
g13
sg14
S'Noto Sans Cherokee'
p2052
sg16
I400
sg17
g13
sg18
g13
sg19
S'/usr/share/fonts/noto/NotoSansCherokee-Thin.ttf'
p2053
sg21
g22
sbag7
(g8
g9
NtRp2054
(dp2055
g12
g13
sg14
S'Noto Sans Lao UI'
p2056
sg16
I400
sg17
g13
sg18
g13
sg19
S'/usr/share/fonts/noto/NotoSansLaoUI-Black.ttf'
p2057
sg21
g22
sbag7
(g8
g9
NtRp2058
(dp2059
g12
g13
sg14
S'URW Bookman'
p2060
sg16
I200
sg17
g13
sg18
g13
sg19
S'/usr/share/fonts/gsfonts/URWBookman-Light.otf'
p2061
sg21
g22
sbag7
(g8
g9
NtRp2062
(dp2063
g12
g13
sg14
S'Noto Sans Telugu'
p2064
sg16
I700
sg17
g13
sg18
g13
sg19
S'/usr/share/fonts/noto/NotoSansTelugu-Bold.ttf'
p2065
sg21
g22
sbag7
(g8
g9
NtRp2066
(dp2067
g12
g13
sg14
S'Noto Serif Lao'
p2068
sg16
I400
sg17
g13
sg18
g13
sg19
S'/usr/share/fonts/noto/NotoSerifLao-Black.ttf'
p2069
sg21
g22
sbag7
(g8
g9
NtRp2070
(dp2071
g12
g13
sg14
S'Noto Naskh Arabic'
p2072
sg16
I700
sg17
g13
sg18
g13
sg19
S'/usr/share/fonts/noto/NotoNaskhArabic-Bold.ttf'
p2073
sg21
g22
sbag7
(g8
g9
NtRp2074
(dp2075
g12
g13
sg14
S'Noto Sans Gothic'
p2076
sg16
I400
sg17
g13
sg18
g13
sg19
S'/usr/share/fonts/noto/NotoSansGothic-Regular.ttf'
p2077
sg21
g22
sbag7
(g8
g9
NtRp2078
(dp2079
g12
g13
sg14
S'Droid Arabic Kufi'
p2080
sg16
I400
sg17
g13
sg18
g13
sg19
S'/usr/share/fonts/droid/DroidKufi-Regular.ttf'
p2081
sg21
g22
sbag7
(g8
g9
NtRp2082
(dp2083
g12
g13
sg14
S'Noto Sans'
p2084
sg16
I400
sg17
g13
sg18
g13
sg19
S'/usr/share/fonts/noto/NotoSans-Black.ttf'
p2085
sg21
g22
sbag7
(g8
g9
NtRp2086
(dp2087
g12
g13
sg14
S'Noto Serif Hebrew'
p2088
sg16
I400
sg17
g13
sg18
g13
sg19
S'/usr/share/fonts/noto/NotoSerifHebrew-Regular.ttf'
p2089
sg21
g22
sbag7
(g8
g9
NtRp2090
(dp2091
g12
g13
sg14
S'Noto Serif Gujarati'
p2092
sg16
I700
sg17
g13
sg18
g13
sg19
S'/usr/share/fonts/noto/NotoSerifGujarati-Bold.ttf'
p2093
sg21
g22
sbag7
(g8
g9
NtRp2094
(dp2095
g12
g13
sg14
S'Noto Serif Tibetan'
p2096
sg16
I400
sg17
g13
sg18
g13
sg19
S'/usr/share/fonts/noto/NotoSerifTibetan-Medium.ttf'
p2097
sg21
g22
sbag7
(g8
g9
NtRp2098
(dp2099
g12
g41
sg14
S'Noto Sans'
p2100
sg16
I400
sg17
g13
sg18
g13
sg19
S'/usr/share/fonts/noto/NotoSans-MediumItalic.ttf'
p2101
sg21
g22
sbag7
(g8
g9
NtRp2102
(dp2103
g12
g13
sg14
S'Noto Serif Georgian'
p2104
sg16
I400
sg17
g13
sg18
g13
sg19
S'/usr/share/fonts/noto/NotoSerifGeorgian-Light.ttf'
p2105
sg21
g22
sbag7
(g8
g9
NtRp2106
(dp2107
g12
g13
sg14
S'Noto Sans Hebrew'
p2108
sg16
I400
sg17
g13
sg18
g13
sg19
S'/usr/share/fonts/noto/NotoSansHebrew-Medium.ttf'
p2109
sg21
g22
sbag7
(g8
g9
NtRp2110
(dp2111
g12
g13
sg14
S'Cantarell'
p2112
sg16
I400
sg17
g13
sg18
g13
sg19
S'/usr/share/fonts/cantarell/Cantarell-Light.otf'
p2113
sg21
g22
sbag7
(g8
g9
NtRp2114
(dp2115
g12
g13
sg14
S'Noto Sans Display'
p2116
sg16
I400
sg17
g13
sg18
g13
sg19
S'/usr/share/fonts/noto/NotoSansDisplay-Thin.ttf'
p2117
sg21
g22
sbag7
(g8
g9
NtRp2118
(dp2119
g12
g13
sg14
S'Noto Sans Malayalam'
p2120
sg16
I700
sg17
g13
sg18
g13
sg19
S'/usr/share/fonts/noto/NotoSansMalayalam-Bold.ttf'
p2121
sg21
g22
sbag7
(g8
g9
NtRp2122
(dp2123
g12
g13
sg14
S'Noto Serif Thai'
p2124
sg16
I700
sg17
g13
sg18
g13
sg19
S'/usr/share/fonts/noto/NotoSerifThai-Bold.ttf'
p2125
sg21
g22
sbag7
(g8
g9
NtRp2126
(dp2127
g12
g13
sg14
S'Noto Music'
p2128
sg16
I400
sg17
g13
sg18
g13
sg19
S'/usr/share/fonts/noto/NotoMusic-Regular.ttf'
p2129
sg21
g22
sbag7
(g8
g9
NtRp2130
(dp2131
g12
g13
sg14
S'Noto Serif Malayalam'
p2132
sg16
I400
sg17
g13
sg18
g13
sg19
S'/usr/share/fonts/noto/NotoSerifMalayalam-Regular.ttf'
p2133
sg21
g22
sbag7
(g8
g9
NtRp2134
(dp2135
g12
g13
sg14
S'Droid Sans'
p2136
sg16
I700
sg17
g13
sg18
g13
sg19
S'/usr/share/fonts/droid/DroidSans-Bold.ttf'
p2137
sg21
g22
sbag7
(g8
g9
NtRp2138
(dp2139
g12
g13
sg14
S'Noto Sans Runic'
p2140
sg16
I400
sg17
g13
sg18
g13
sg19
S'/usr/share/fonts/noto/NotoSansRunic-Regular.ttf'
p2141
sg21
g22
sbag7
(g8
g9
NtRp2142
(dp2143
g12
g13
sg14
S'Noto Serif Balinese'
p2144
sg16
I400
sg17
g13
sg18
g13
sg19
S'/usr/share/fonts/noto/NotoSerifBalinese-Regular.ttf'
p2145
sg21
g22
sbag7
(g8
g9
NtRp2146
(dp2147
g12
g13
sg14
S'Liberation Sans'
p2148
sg16
I400
sg17
g13
sg18
g13
sg19
S'/usr/share/fonts/liberation/LiberationSans-Regular.ttf'
p2149
sg21
g22
sbag7
(g8
g9
NtRp2150
(dp2151
g12
g13
sg14
S'Noto Serif Myanmar'
p2152
sg16
I400
sg17
g13
sg18
g13
sg19
S'/usr/share/fonts/noto/NotoSerifMyanmar-Regular.ttf'
p2153
sg21
g22
sbag7
(g8
g9
NtRp2154
(dp2155
g12
g13
sg14
S'Noto Sans Bengali'
p2156
sg16
I400
sg17
g13
sg18
g13
sg19
S'/usr/share/fonts/noto/NotoSansBengali-Thin.ttf'
p2157
sg21
g22
sbag7
(g8
g9
NtRp2158
(dp2159
g12
g13
sg14
S'Noto Sans Gurmukhi UI'
p2160
sg16
I700
sg17
g13
sg18
g13
sg19
S'/usr/share/fonts/noto/NotoSansGurmukhiUI-Bold.ttf'
p2161
sg21
g22
sbag7
(g8
g9
NtRp2162
(dp2163
g12
g13
sg14
S'Noto Sans Ethiopic'
p2164
sg16
I400
sg17
g13
sg18
g13
sg19
S'/usr/share/fonts/noto/NotoSansEthiopic-Medium.ttf'
p2165
sg21
g22
sbag7
(g8
g9
NtRp2166
(dp2167
g12
g13
sg14
S'Noto Naskh Arabic'
p2168
sg16
I400
sg17
g13
sg18
g13
sg19
S'/usr/share/fonts/noto/NotoNaskhArabic-Regular.ttf'
p2169
sg21
g22
sbag7
(g8
g9
NtRp2170
(dp2171
g12
g13
sg14
S'Noto Sans Phoenician'
p2172
sg16
I400
sg17
g13
sg18
g13
sg19
S'/usr/share/fonts/noto/NotoSansPhoenician-Regular.ttf'
p2173
sg21
g22
sbag7
(g8
g9
NtRp2174
(dp2175
g12
g13
sg14
S'Noto Sans Palmyrene'
p2176
sg16
I400
sg17
g13
sg18
g13
sg19
S'/usr/share/fonts/noto/NotoSansPalmyrene-Regular.ttf'
p2177
sg21
g22
sbag7
(g8
g9
NtRp2178
(dp2179
g12
g13
sg14
S'Noto Sans Thai UI'
p2180
sg16
I400
sg17
g13
sg18
g13
sg19
S'/usr/share/fonts/noto/NotoSansThaiUI-Medium.ttf'
p2181
sg21
g22
sbag7
(g8
g9
NtRp2182
(dp2183
g12
g13
sg14
S'Liberation Mono'
p2184
sg16
I400
sg17
g13
sg18
g13
sg19
S'/usr/share/fonts/liberation/LiberationMono-Regular.ttf'
p2185
sg21
g22
sbag7
(g8
g9
NtRp2186
(dp2187
g12
g13
sg14
S'Noto Sans Gujarati'
p2188
sg16
I700
sg17
g13
sg18
g13
sg19
S'/usr/share/fonts/noto/NotoSansGujarati-Bold.ttf'
p2189
sg21
g22
sbag7
(g8
g9
NtRp2190
(dp2191
g12
g13
sg14
S'Likhan'
p2192
sg16
I400
sg17
g13
sg18
g13
sg19
S'/usr/share/fonts/TTF/LikhanNormal.ttf'
p2193
sg21
g22
sbag7
(g8
g9
NtRp2194
(dp2195
g12
g13
sg14
S'Noto Sans Thai'
p2196
sg16
I400
sg17
g13
sg18
g13
sg19
S'/usr/share/fonts/noto/NotoSansThai-Thin.ttf'
p2197
sg21
g22
sbag7
(g8
g9
NtRp2198
(dp2199
g12
g13
sg14
S'Noto Serif Gurmukhi'
p2200
sg16
I400
sg17
g13
sg18
g13
sg19
S'/usr/share/fonts/noto/NotoSerifGurmukhi-Thin.ttf'
p2201
sg21
g22
sbag7
(g8
g9
NtRp2202
(dp2203
g12
g13
sg14
S'Noto Sans Takri'
p2204
sg16
I400
sg17
g13
sg18
g13
sg19
S'/usr/share/fonts/noto/NotoSansTakri-Regular.ttf'
p2205
sg21
g22
sbag7
(g8
g9
NtRp2206
(dp2207
g12
g13
sg14
S'Noto Sans Telugu UI'
p2208
sg16
I700
sg17
g13
sg18
g13
sg19
S'/usr/share/fonts/noto/NotoSansTeluguUI-Bold.ttf'
p2209
sg21
g22
sbag7
(g8
g9
NtRp2210
(dp2211
g12
g13
sg14
S'Cantarell'
p2212
sg16
I400
sg17
g13
sg18
g13
sg19
S'/usr/share/fonts/cantarell/Cantarell-Thin.otf'
p2213
sg21
g22
sbag7
(g8
g9
NtRp2214
(dp2215
g12
g13
sg14
S'Noto Sans Gujarati UI'
p2216
sg16
I400
sg17
g13
sg18
g13
sg19
S'/usr/share/fonts/noto/NotoSansGujaratiUI-Regular.ttf'
p2217
sg21
g22
sbag7
(g8
g9
NtRp2218
(dp2219
g12
g13
sg14
S'Noto Serif Tibetan'
p2220
sg16
I400
sg17
g13
sg18
g13
sg19
S'/usr/share/fonts/noto/NotoSerifTibetan-Light.ttf'
p2221
sg21
g22
sbag7
(g8
g9
NtRp2222
(dp2223
g12
g13
sg14
S'Noto Sans Symbols2'
p2224
sg16
I400
sg17
g13
sg18
g13
sg19
S'/usr/share/fonts/noto/NotoSansSymbols2-Regular.ttf'
p2225
sg21
g22
sbag7
(g8
g9
NtRp2226
(dp2227
g12
g13
sg14
S'Noto Sans Linear A'
p2228
sg16
I400
sg17
g13
sg18
g13
sg19
S'/usr/share/fonts/noto/NotoSansLinearA-Regular.ttf'
p2229
sg21
g22
sbag7
(g8
g9
NtRp2230
(dp2231
g12
g13
sg14
S'Noto Sans Osage'
p2232
sg16
I400
sg17
g13
sg18
g13
sg19
S'/usr/share/fonts/noto/NotoSansOsage-Regular.ttf'
p2233
sg21
g22
sbag7
(g8
g9
NtRp2234
(dp2235
g12
g13
sg14
S'Noto Serif Bengali'
p2236
sg16
I700
sg17
g13
sg18
g13
sg19
S'/usr/share/fonts/noto/NotoSerifBengali-Bold.ttf'
p2237
sg21
g22
sbag7
(g8
g9
NtRp2238
(dp2239
g12
g13
sg14
S'Droid Arabic Naskh'
p2240
sg16
I400
sg17
g13
sg18
g13
sg19
S'/usr/share/fonts/droid/DroidNaskh-Regular.ttf'
p2241
sg21
g22
sbag7
(g8
g9
NtRp2242
(dp2243
g12
g13
sg14
S'Noto Sans Ethiopic'
p2244
sg16
I400
sg17
g13
sg18
g13
sg19
S'/usr/share/fonts/noto/NotoSansEthiopic-Thin.ttf'
p2245
sg21
g22
sbag7
(g8
g9
NtRp2246
(dp2247
g12
g13
sg14
S'Noto Sans Mende Kikakui'
p2248
sg16
I400
sg17
g13
sg18
g13
sg19
S'/usr/share/fonts/noto/NotoSansMendeKikakui-Regular.ttf'
p2249
sg21
g22
sbag7
(g8
g9
NtRp2250
(dp2251
g12
g41
sg14
S'Nimbus Mono PS'
p2252
sg16
I700
sg17
g13
sg18
g13
sg19
S'/usr/share/fonts/gsfonts/NimbusMonoPS-BoldItalic.otf'
p2253
sg21
g22
sbag7
(g8
g9
NtRp2254
(dp2255
g12
g13
sg14
S'Nimbus Sans'
p2256
sg16
I400
sg17
g13
sg18
g13
sg19
S'/usr/share/fonts/gsfonts/NimbusSans-Regular.otf'
p2257
sg21
g22
sbag7
(g8
g9
NtRp2258
(dp2259
g12
g13
sg14
S'Noto Serif Ethiopic'
p2260
sg16
I400
sg17
g13
sg18
g13
sg19
S'/usr/share/fonts/noto/NotoSerifEthiopic-Black.ttf'
p2261
sg21
g22
sbag7
(g8
g9
NtRp2262
(dp2263
g12
g13
sg14
S'Noto Sans Hebrew'
p2264
sg16
I400
sg17
g13
sg18
g13
sg19
S'/usr/share/fonts/noto/NotoSansHebrew-Black.ttf'
p2265
sg21
g22
sbag7
(g8
g9
NtRp2266
(dp2267
g12
g13
sg14
S'Noto Sans Sinhala UI'
p2268
sg16
I700
sg17
g13
sg18
g13
sg19
S'/usr/share/fonts/noto/NotoSansSinhalaUI-Bold.ttf'
p2269
sg21
g22
sbag7
(g8
g9
NtRp2270
(dp2271
g12
g13
sg14
S'Noto Serif Khmer'
p2272
sg16
I400
sg17
g13
sg18
g13
sg19
S'/usr/share/fonts/noto/NotoSerifKhmer-Medium.ttf'
p2273
sg21
g22
sbag7
(g8
g9
NtRp2274
(dp2275
g12
g13
sg14
S'Noto Sans Devanagari UI'
p2276
sg16
I400
sg17
g13
sg18
g13
sg19
S'/usr/share/fonts/noto/NotoSansDevanagariUI-Light.ttf'
p2277
sg21
g22
sbag7
(g8
g9
NtRp2278
(dp2279
g12
g13
sg14
S'Noto Sans Avestan'
p2280
sg16
I400
sg17
g13
sg18
g13
sg19
S'/usr/share/fonts/noto/NotoSansAvestan-Regular.ttf'
p2281
sg21
g22
sbag7
(g8
g9
NtRp2282
(dp2283
g12
g13
sg14
S'Noto Sans Malayalam'
p2284
sg16
I400
sg17
g13
sg18
g13
sg19
S'/usr/share/fonts/noto/NotoSansMalayalam-Black.ttf'
p2285
sg21
g22
sbag7
(g8
g9
NtRp2286
(dp2287
g12
g13
sg14
S'Noto Sans Adlam'
p2288
sg16
I400
sg17
g13
sg18
g13
sg19
S'/usr/share/fonts/noto/NotoSansAdlam-Regular.ttf'
p2289
sg21
g22
sbag7
(g8
g9
NtRp2290
(dp2291
g12
g13
sg14
S'Noto Sans Bengali UI'
p2292
sg16
I400
sg17
g13
sg18
g13
sg19
S'/usr/share/fonts/noto/NotoSansBengaliUI-Thin.ttf'
p2293
sg21
g22
sbag7
(g8
g9
NtRp2294
(dp2295
g12
g13
sg14
S'Noto Serif Tamil Slanted'
p2296
sg16
I400
sg17
g13
sg18
g13
sg19
S'/usr/share/fonts/noto/NotoSerifTamilSlanted-Regular.ttf'
p2297
sg21
g22
sbag7
(g8
g9
NtRp2298
(dp2299
g12
g13
sg14
S'Noto Serif Georgian'
p2300
sg16
I400
sg17
g13
sg18
g13
sg19
S'/usr/share/fonts/noto/NotoSerifGeorgian-Thin.ttf'
p2301
sg21
g22
sbag7
(g8
g9
NtRp2302
(dp2303
g12
g13
sg14
S'Noto Serif Ethiopic'
p2304
sg16
I400
sg17
g13
sg18
g13
sg19
S'/usr/share/fonts/noto/NotoSerifEthiopic-Thin.ttf'
p2305
sg21
g22
sbag7
(g8
g9
NtRp2306
(dp2307
g12
g13
sg14
S'AkrutiTml2'
p2308
sg16
I400
sg17
g13
sg18
g13
sg19
S'/usr/share/fonts/TTF/akruti2.ttf'
p2309
sg21
g22
sbag7
(g8
g9
NtRp2310
(dp2311
g12
g13
sg14
S'Droid Sans Hebrew'
p2312
sg16
I700
sg17
g13
sg18
g13
sg19
S'/usr/share/fonts/droid/DroidSansHebrew-Bold.ttf'
p2313
sg21
g22
sbag7
(g8
g9
NtRp2314
(dp2315
g12
g46
sg14
S'URW Gothic'
p2316
sg16
I600
sg17
g13
sg18
g13
sg19
S'/usr/share/fonts/gsfonts/URWGothic-DemiOblique.otf'
p2317
sg21
g22
sbag7
(g8
g9
NtRp2318
(dp2319
g12
g13
sg14
S'Noto Sans Mono'
p2320
sg16
I400
sg17
g13
sg18
g13
sg19
S'/usr/share/fonts/noto/NotoSansMono-Thin.ttf'
p2321
sg21
g22
sbag7
(g8
g9
NtRp2322
(dp2323
g12
g13
sg14
S'Noto Sans Khmer'
p2324
sg16
I400
sg17
g13
sg18
g13
sg19
S'/usr/share/fonts/noto/NotoSansKhmer-Light.ttf'
p2325
sg21
g22
sbag7
(g8
g9
NtRp2326
(dp2327
g12
g13
sg14
S'Noto Sans Meroitic'
p2328
sg16
I400
sg17
g13
sg18
g13
sg19
S'/usr/share/fonts/noto/NotoSansMeroitic-Regular.ttf'
p2329
sg21
g22
sbag7
(g8
g9
NtRp2330
(dp2331
g12
g13
sg14
S'Noto Sans Display'
p2332
sg16
I400
sg17
g13
sg18
g13
sg19
S'/usr/share/fonts/noto/NotoSansDisplay-Light.ttf'
p2333
sg21
g22
sbag7
(g8
g9
NtRp2334
(dp2335
g12
g13
sg14
S'Noto Sans Symbols'
p2336
sg16
I400
sg17
g13
sg18
g13
sg19
S'/usr/share/fonts/noto/NotoSansSymbols-Regular.ttf'
p2337
sg21
g22
sbag7
(g8
g9
NtRp2338
(dp2339
g12
g13
sg14
S'Noto Sans Mongolian'
p2340
sg16
I400
sg17
g13
sg18
g13
sg19
S'/usr/share/fonts/noto/NotoSansMongolian-Regular.ttf'
p2341
sg21
g22
sbag7
(g8
g9
NtRp2342
(dp2343
g12
g41
sg14
S'Nimbus Roman'
p2344
sg16
I500
sg17
g13
sg18
g13
sg19
S'/usr/share/fonts/gsfonts/NimbusRoman-Italic.otf'
p2345
sg21
g22
sbag7
(g8
g9
NtRp2346
(dp2347
g12
g13
sg14
S'Noto Sans Batak'
p2348
sg16
I400
sg17
g13
sg18
g13
sg19
S'/usr/share/fonts/noto/NotoSansBatak-Regular.ttf'
p2349
sg21
g22
sbag7
(g8
g9
NtRp2350
(dp2351
g12
g13
sg14
S'Noto Sans Syriac'
p2352
sg16
I400
sg17
g13
sg18
g13
sg19
S'/usr/share/fonts/noto/NotoSansSyriac-Thin.ttf'
p2353
sg21
g22
sbag7
(g8
g9
NtRp2354
(dp2355
g12
g13
sg14
S'Noto Sans Arabic'
p2356
sg16
I400
sg17
g13
sg18
g13
sg19
S'/usr/share/fonts/noto/NotoSansArabic-Light.ttf'
p2357
sg21
g22
sbag7
(g8
g9
NtRp2358
(dp2359
g12
g13
sg14
S'Noto Serif Armenian'
p2360
sg16
I400
sg17
g13
sg18
g13
sg19
S'/usr/share/fonts/noto/NotoSerifArmenian-Thin.ttf'
p2361
sg21
g22
sbag7
(g8
g9
NtRp2362
(dp2363
g12
g13
sg14
S'Noto Sans Brahmi'
p2364
sg16
I400
sg17
g13
sg18
g13
sg19
S'/usr/share/fonts/noto/NotoSansBrahmi-Regular.ttf'
p2365
sg21
g22
sbag7
(g8
g9
NtRp2366
(dp2367
g12
g13
sg14
S'Noto Serif Thai'
p2368
sg16
I400
sg17
g13
sg18
g13
sg19
S'/usr/share/fonts/noto/NotoSerifThai-Medium.ttf'
p2369
sg21
g22
sbag7
(g8
g9
NtRp2370
(dp2371
g12
g13
sg14
S'Noto Serif Sinhala'
p2372
sg16
I400
sg17
g13
sg18
g13
sg19
S'/usr/share/fonts/noto/NotoSerifSinhala-Medium.ttf'
p2373
sg21
g22
sbag7
(g8
g9
NtRp2374
(dp2375
g12
g13
sg14
S'TAMu_Kalyani'
p2376
sg16
I400
sg17
g13
sg18
g13
sg19
S'/usr/share/fonts/TTF/TAMu_Kalyani.ttf'
p2377
sg21
g22
sbag7
(g8
g9
NtRp2378
(dp2379
g12
g13
sg14
S'Noto Sans Khmer UI'
p2380
sg16
I400
sg17
g13
sg18
g13
sg19
S'/usr/share/fonts/noto/NotoSansKhmerUI-Light.ttf'
p2381
sg21
g22
sbag7
(g8
g9
NtRp2382
(dp2383
g12
g13
sg14
S'Noto Serif Tamil'
p2384
sg16
I400
sg17
g13
sg18
g13
sg19
S'/usr/share/fonts/noto/NotoSerifTamil-Regular.ttf'
p2385
sg21
g22
sbag7
(g8
g9
NtRp2386
(dp2387
g12
g13
sg14
S'Noto Sans Mono'
p2388
sg16
I400
sg17
g13
sg18
g13
sg19
S'/usr/share/fonts/noto/NotoSansMono-Medium.ttf'
p2389
sg21
g22
sbag7
(g8
g9
NtRp2390
(dp2391
g12
g13
sg14
S'Noto Sans Khmer UI'
p2392
sg16
I400
sg17
g13
sg18
g13
sg19
S'/usr/share/fonts/noto/NotoSansKhmerUI-Regular.ttf'
p2393
sg21
g22
sbag7
(g8
g9
NtRp2394
(dp2395
g12
g13
sg14
S'Droid Sans'
p2396
sg16
I400
sg17
g13
sg18
g13
sg19
S'/usr/share/fonts/droid/DroidSans.ttf'
p2397
sg21
g22
sbag7
(g8
g9
NtRp2398
(dp2399
g12
g13
sg14
S'orya'
p2400
sg16
I400
sg17
g13
sg18
g13
sg19
S'/usr/share/fonts/TTF/oriya.ttf'
p2401
sg21
g22
sbag7
(g8
g9
NtRp2402
(dp2403
g12
g13
sg14
S'Noto Sans Cherokee'
p2404
sg16
I400
sg17
g13
sg18
g13
sg19
S'/usr/share/fonts/noto/NotoSansCherokee-Light.ttf'
p2405
sg21
g22
sbag7
(g8
g9
NtRp2406
(dp2407
g12
g13
sg14
S'Droid Serif'
p2408
sg16
I700
sg17
g13
sg18
g13
sg19
S'/usr/share/fonts/droid/DroidSerif-Bold.ttf'
p2409
sg21
g22
sbag7
(g8
g9
NtRp2410
(dp2411
g12
g13
sg14
S'Noto Serif Tamil Slanted'
p2412
sg16
I400
sg17
g13
sg18
g13
sg19
S'/usr/share/fonts/noto/NotoSerifTamilSlanted-Thin.ttf'
p2413
sg21
g22
sbag7
(g8
g9
NtRp2414
(dp2415
g12
g13
sg14
S'Noto Sans Bengali UI'
p2416
sg16
I700
sg17
g13
sg18
g13
sg19
S'/usr/share/fonts/noto/NotoSansBengaliUI-Bold.ttf'
p2417
sg21
g22
sbag7
(g8
g9
NtRp2418
(dp2419
g12
g13
sg14
S'Noto Sans Armenian'
p2420
sg16
I400
sg17
g13
sg18
g13
sg19
S'/usr/share/fonts/noto/NotoSansArmenian-Thin.ttf'
p2421
sg21
g22
sbag7
(g8
g9
NtRp2422
(dp2423
g12
g13
sg14
S'Noto Sans Oriya'
p2424
sg16
I400
sg17
g13
sg18
g13
sg19
S'/usr/share/fonts/noto/NotoSansOriya-Regular.ttf'
p2425
sg21
g22
sbag7
(g8
g9
NtRp2426
(dp2427
g12
g13
sg14
S'Noto Sans Old Turkic'
p2428
sg16
I400
sg17
g13
sg18
g13
sg19
S'/usr/share/fonts/noto/NotoSansOldTurkic-Regular.ttf'
p2429
sg21
g22
sbag7
(g8
g9
NtRp2430
(dp2431
g12
g13
sg14
S'Noto Sans Tamil UI'
p2432
sg16
I400
sg17
g13
sg18
g13
sg19
S'/usr/share/fonts/noto/NotoSansTamilUI-Medium.ttf'
p2433
sg21
g22
sbag7
(g8
g9
NtRp2434
(dp2435
g12
g13
sg14
S'Nimbus Sans Narrow'
p2436
sg16
I400
sg17
g812
sg18
g13
sg19
S'/usr/share/fonts/gsfonts/NimbusSansNarrow-Regular.otf'
p2437
sg21
g22
sbag7
(g8
g9
NtRp2438
(dp2439
g12
g13
sg14
S'Noto Serif'
p2440
sg16
I400
sg17
g13
sg18
g13
sg19
S'/usr/share/fonts/noto/NotoSerif-Black.ttf'
p2441
sg21
g22
sbag7
(g8
g9
NtRp2442
(dp2443
g12
g41
sg14
S'Liberation Sans'
p2444
sg16
I400
sg17
g13
sg18
g13
sg19
S'/usr/share/fonts/liberation/LiberationSans-Italic.ttf'
p2445
sg21
g22
sbag7
(g8
g9
NtRp2446
(dp2447
g12
g13
sg14
S'Noto Sans Sinhala'
p2448
sg16
I400
sg17
g13
sg18
g13
sg19
S'/usr/share/fonts/noto/NotoSansSinhala-Thin.ttf'
p2449
sg21
g22
sbag7
(g8
g9
NtRp2450
(dp2451
g12
g13
sg14
S'Source Code Pro'
p2452
sg16
I900
sg17
g13
sg18
g13
sg19
S'/usr/share/fonts/adobe-source-code-pro/SourceCodePro-Black.otf'
p2453
sg21
g22
sbag7
(g8
g9
NtRp2454
(dp2455
g12
g13
sg14
S'Noto Sans Thai UI'
p2456
sg16
I400
sg17
g13
sg18
g13
sg19
S'/usr/share/fonts/noto/NotoSansThaiUI-Black.ttf'
p2457
sg21
g22
sbag7
(g8
g9
NtRp2458
(dp2459
g12
g13
sg14
S'Noto Sans Myanmar'
p2460
sg16
I400
sg17
g13
sg18
g13
sg19
S'/usr/share/fonts/noto/NotoSansMyanmar-Medium.ttf'
p2461
sg21
g22
sbag7
(g8
g9
NtRp2462
(dp2463
g12
g13
sg14
S'Noto Sans Kannada'
p2464
sg16
I700
sg17
g13
sg18
g13
sg19
S'/usr/share/fonts/noto/NotoSansKannada-Bold.ttf'
p2465
sg21
g22
sbag7
(g8
g9
NtRp2466
(dp2467
g12
g13
sg14
S'Noto Sans Myanmar'
p2468
sg16
I400
sg17
g13
sg18
g13
sg19
S'/usr/share/fonts/noto/NotoSansMyanmar-Black.ttf'
p2469
sg21
g22
sbag7
(g8
g9
NtRp2470
(dp2471
g12
g13
sg14
S'AkrutiMal2'
p2472
sg16
I700
sg17
g13
sg18
g13
sg19
S'/usr/share/fonts/TTF/mal2-b.ttf'
p2473
sg21
g22
sbag7
(g8
g9
NtRp2474
(dp2475
g12
g13
sg14
S'Noto Serif Khmer'
p2476
sg16
I400
sg17
g13
sg18
g13
sg19
S'/usr/share/fonts/noto/NotoSerifKhmer-Light.ttf'
p2477
sg21
g22
sbag7
(g8
g9
NtRp2478
(dp2479
g12
g13
sg14
S'Noto Sans Armenian'
p2480
sg16
I700
sg17
g13
sg18
g13
sg19
S'/usr/share/fonts/noto/NotoSansArmenian-Bold.ttf'
p2481
sg21
g22
sbag7
(g8
g9
NtRp2482
(dp2483
g12
g13
sg14
S'padmaa'
p2484
sg16
I700
sg17
g13
sg18
g13
sg19
S'/usr/share/fonts/TTF/padmaa-Bold-0.5.ttf'
p2485
sg21
g22
sbag7
(g8
g9
NtRp2486
(dp2487
g12
g41
sg14
S'P052'
p2488
sg16
I700
sg17
g13
sg18
g13
sg19
S'/usr/share/fonts/gsfonts/P052-BoldItalic.otf'
p2489
sg21
g22
sbag7
(g8
g9
NtRp2490
(dp2491
g12
g13
sg14
S'Noto Sans Inscriptional Pahlavi'
p2492
sg16
I400
sg17
g13
sg18
g13
sg19
S'/usr/share/fonts/noto/NotoSansInscriptionalPahlavi-Regular.ttf'
p2493
sg21
g22
sbag7
(g8
g9
NtRp2494
(dp2495
g12
g13
sg14
S'Droid Sans Tamil'
p2496
sg16
I700
sg17
g13
sg18
g13
sg19
S'/usr/share/fonts/droid/DroidSansTamil-Bold.ttf'
p2497
sg21
g22
sbag7
(g8
g9
NtRp2498
(dp2499
g12
g13
sg14
S'Noto Sans Lao UI'
p2500
sg16
I400
sg17
g13
sg18
g13
sg19
S'/usr/share/fonts/noto/NotoSansLaoUI-Regular.ttf'
p2501
sg21
g22
sbag7
(g8
g9
NtRp2502
(dp2503
g12
g41
sg14
S'Noto Sans'
p2504
sg16
I400
sg17
g13
sg18
g13
sg19
S'/usr/share/fonts/noto/NotoSans-ThinItalic.ttf'
p2505
sg21
g22
sbag7
(g8
g9
NtRp2506
(dp2507
g12
g41
sg14
S'Source Code Pro'
p2508
sg16
I900
sg17
g13
sg18
g13
sg19
S'/usr/share/fonts/adobe-source-code-pro/SourceCodePro-BlackIt.otf'
p2509
sg21
g22
sbag7
(g8
g9
NtRp2510
(dp2511
g12
g13
sg14
S'Noto Serif Armenian'
p2512
sg16
I400
sg17
g13
sg18
g13
sg19
S'/usr/share/fonts/noto/NotoSerifArmenian-Medium.ttf'
p2513
sg21
g22
sbag7
(g8
g9
NtRp2514
(dp2515
g12
g13
sg14
S'Noto Sans Khmer UI'
p2516
sg16
I400
sg17
g13
sg18
g13
sg19
S'/usr/share/fonts/noto/NotoSansKhmerUI-Black.ttf'
p2517
sg21
g22
sbag7
(g8
g9
NtRp2518
(dp2519
g12
g13
sg14
S'Droid Sans Tamil'
p2520
sg16
I400
sg17
g13
sg18
g13
sg19
S'/usr/share/fonts/droid/DroidSansTamil-Regular.ttf'
p2521
sg21
g22
sbag7
(g8
g9
NtRp2522
(dp2523
g12
g41
sg14
S'Source Code Variable'
p2524
sg16
I400
sg17
g13
sg18
g13
sg19
S'/usr/share/fonts/adobe-source-code-pro/SourceCodeVariable-Italic.otf'
p2525
sg21
g22
sbag7
(g8
g9
NtRp2526
(dp2527
g12
g13
sg14
S'Noto Sans Psalter Pahlavi'
p2528
sg16
I400
sg17
g13
sg18
g13
sg19
S'/usr/share/fonts/noto/NotoSansPsalterPahlavi-Regular.ttf'
p2529
sg21
g22
sbag7
(g8
g9
NtRp2530
(dp2531
g12
g13
sg14
S'Noto Sans Bhaiksuki'
p2532
sg16
I400
sg17
g13
sg18
g13
sg19
S'/usr/share/fonts/noto/NotoSansBhaiksuki-Regular.ttf'
p2533
sg21
g22
sbag7
(g8
g9
NtRp2534
(dp2535
g12
g13
sg14
S'Droid Sans Fallback'
p2536
sg16
I400
sg17
g13
sg18
g13
sg19
S'/usr/share/fonts/droid/DroidSansFallback.ttf'
p2537
sg21
g22
sbag7
(g8
g9
NtRp2538
(dp2539
g12
g13
sg14
S'Noto Sans Yi'
p2540
sg16
I400
sg17
g13
sg18
g13
sg19
S'/usr/share/fonts/noto/NotoSansYi-Regular.ttf'
p2541
sg21
g22
sbag7
(g8
g9
NtRp2542
(dp2543
g12
g13
sg14
S'Noto Sans Tamil'
p2544
sg16
I400
sg17
g13
sg18
g13
sg19
S'/usr/share/fonts/noto/NotoSansTamil-Thin.ttf'
p2545
sg21
g22
sbag7
(g8
g9
NtRp2546
(dp2547
g12
g13
sg14
S'Noto Sans Thai'
p2548
sg16
I400
sg17
g13
sg18
g13
sg19
S'/usr/share/fonts/noto/NotoSansThai-Light.ttf'
p2549
sg21
g22
sbag7
(g8
g9
NtRp2550
(dp2551
g12
g13
sg14
S'Noto Serif Sinhala'
p2552
sg16
I400
sg17
g13
sg18
g13
sg19
S'/usr/share/fonts/noto/NotoSerifSinhala-Regular.ttf'
p2553
sg21
g22
sbag7
(g8
g9
NtRp2554
(dp2555
g12
g13
sg14
S'Noto Sans Mono'
p2556
sg16
I700
sg17
g13
sg18
g13
sg19
S'/usr/share/fonts/noto/NotoSansMono-Bold.ttf'
p2557
sg21
g22
sbag7
(g8
g9
NtRp2558
(dp2559
g12
g13
sg14
S'Noto Sans Thaana'
p2560
sg16
I400
sg17
g13
sg18
g13
sg19
S'/usr/share/fonts/noto/NotoSansThaana-Medium.ttf'
p2561
sg21
g22
sbag7
(g8
g9
NtRp2562
(dp2563
g12
g13
sg14
S'Noto Sans Marchen'
p2564
sg16
I400
sg17
g13
sg18
g13
sg19
S'/usr/share/fonts/noto/NotoSansMarchen-Regular.ttf'
p2565
sg21
g22
sbag7
(g8
g9
NtRp2566
(dp2567
g12
g13
sg14
S'Noto Sans Arabic UI'
p2568
sg16
I400
sg17
g13
sg18
g13
sg19
S'/usr/share/fonts/noto/NotoSansArabicUI-Black.ttf'
p2569
sg21
g22
sbasS'defaultFamily'
p2570
(dp2571
S'afm'
p2572
S'Helvetica'
p2573
sS'ttf'
p2574
S'Bitstream Vera Sans'
p2575
ssS'ttffiles'
p2576
(lp2577
S'/home/kannab/soft/casa-pipeline-release-5.6.1-8.el7/lib/python2.7/site-packages/matplotlib/mpl-data/fonts/ttf/Vera.ttf'
p2578
aS'/home/kannab/soft/casa-pipeline-release-5.6.1-8.el7/lib/python2.7/site-packages/matplotlib/mpl-data/fonts/ttf/cmtt10.ttf'
p2579
aS'/home/kannab/soft/casa-pipeline-release-5.6.1-8.el7/lib/python2.7/site-packages/matplotlib/mpl-data/fonts/ttf/STIXNonUniBol.ttf'
p2580
aS'/home/kannab/soft/casa-pipeline-release-5.6.1-8.el7/lib/python2.7/site-packages/matplotlib/mpl-data/fonts/ttf/cmr10.ttf'
p2581
aS'/home/kannab/soft/casa-pipeline-release-5.6.1-8.el7/lib/python2.7/site-packages/matplotlib/mpl-data/fonts/ttf/STIXSizOneSymReg.ttf'
p2582
aS'/home/kannab/soft/casa-pipeline-release-5.6.1-8.el7/lib/python2.7/site-packages/matplotlib/mpl-data/fonts/ttf/STIXNonUniBolIta.ttf'
p2583
aS'/home/kannab/soft/casa-pipeline-release-5.6.1-8.el7/lib/python2.7/site-packages/matplotlib/mpl-data/fonts/ttf/VeraMoBI.ttf'
p2584
aS'/home/kannab/soft/casa-pipeline-release-5.6.1-8.el7/lib/python2.7/site-packages/matplotlib/mpl-data/fonts/ttf/STIXSizFiveSymReg.ttf'
p2585
aS'/home/kannab/soft/casa-pipeline-release-5.6.1-8.el7/lib/python2.7/site-packages/matplotlib/mpl-data/fonts/ttf/STIXGeneralBolIta.ttf'
p2586
aS'/home/kannab/soft/casa-pipeline-release-5.6.1-8.el7/lib/python2.7/site-packages/matplotlib/mpl-data/fonts/ttf/VeraSe.ttf'
p2587
aS'/home/kannab/soft/casa-pipeline-release-5.6.1-8.el7/lib/python2.7/site-packages/matplotlib/mpl-data/fonts/ttf/STIXSizFourSymBol.ttf'
p2588
aS'/home/kannab/soft/casa-pipeline-release-5.6.1-8.el7/lib/python2.7/site-packages/matplotlib/mpl-data/fonts/ttf/VeraBI.ttf'
p2589
aS'/home/kannab/soft/casa-pipeline-release-5.6.1-8.el7/lib/python2.7/site-packages/matplotlib/mpl-data/fonts/ttf/cmmi10.ttf'
p2590
aS'/home/kannab/soft/casa-pipeline-release-5.6.1-8.el7/lib/python2.7/site-packages/matplotlib/mpl-data/fonts/ttf/STIXGeneral.ttf'
p2591
aS'/home/kannab/soft/casa-pipeline-release-5.6.1-8.el7/lib/python2.7/site-packages/matplotlib/mpl-data/fonts/ttf/STIXNonUniIta.ttf'
p2592
aS'/home/kannab/soft/casa-pipeline-release-5.6.1-8.el7/lib/python2.7/site-packages/matplotlib/mpl-data/fonts/ttf/STIXGeneralBol.ttf'
p2593
aS'/home/kannab/soft/casa-pipeline-release-5.6.1-8.el7/lib/python2.7/site-packages/matplotlib/mpl-data/fonts/ttf/VeraBd.ttf'
p2594
aS'/home/kannab/soft/casa-pipeline-release-5.6.1-8.el7/lib/python2.7/site-packages/matplotlib/mpl-data/fonts/ttf/cmsy10.ttf'
p2595
aS'/home/kannab/soft/casa-pipeline-release-5.6.1-8.el7/lib/python2.7/site-packages/matplotlib/mpl-data/fonts/ttf/VeraMoIt.ttf'
p2596
aS'/home/kannab/soft/casa-pipeline-release-5.6.1-8.el7/lib/python2.7/site-packages/matplotlib/mpl-data/fonts/ttf/STIXSizThreeSymBol.ttf'
p2597
aS'/home/kannab/soft/casa-pipeline-release-5.6.1-8.el7/lib/python2.7/site-packages/matplotlib/mpl-data/fonts/ttf/VeraIt.ttf'
p2598
aS'/home/kannab/soft/casa-pipeline-release-5.6.1-8.el7/lib/python2.7/site-packages/matplotlib/mpl-data/fonts/ttf/VeraMoBd.ttf'
p2599
aS'/home/kannab/soft/casa-pipeline-release-5.6.1-8.el7/lib/python2.7/site-packages/matplotlib/mpl-data/fonts/ttf/cmb10.ttf'
p2600
aS'/home/kannab/soft/casa-pipeline-release-5.6.1-8.el7/lib/python2.7/site-packages/matplotlib/mpl-data/fonts/ttf/VeraSeBd.ttf'
p2601
aS'/home/kannab/soft/casa-pipeline-release-5.6.1-8.el7/lib/python2.7/site-packages/matplotlib/mpl-data/fonts/ttf/STIXSizFourSymReg.ttf'
p2602
aS'/home/kannab/soft/casa-pipeline-release-5.6.1-8.el7/lib/python2.7/site-packages/matplotlib/mpl-data/fonts/ttf/STIXSizTwoSymBol.ttf'
p2603
aS'/home/kannab/soft/casa-pipeline-release-5.6.1-8.el7/lib/python2.7/site-packages/matplotlib/mpl-data/fonts/ttf/cmss10.ttf'
p2604
aS'/home/kannab/soft/casa-pipeline-release-5.6.1-8.el7/lib/python2.7/site-packages/matplotlib/mpl-data/fonts/ttf/cmex10.ttf'
p2605
aS'/home/kannab/soft/casa-pipeline-release-5.6.1-8.el7/lib/python2.7/site-packages/matplotlib/mpl-data/fonts/ttf/STIXSizTwoSymReg.ttf'
p2606
aS'/home/kannab/soft/casa-pipeline-release-5.6.1-8.el7/lib/python2.7/site-packages/matplotlib/mpl-data/fonts/ttf/STIXGeneralItalic.ttf'
p2607
aS'/home/kannab/soft/casa-pipeline-release-5.6.1-8.el7/lib/python2.7/site-packages/matplotlib/mpl-data/fonts/ttf/STIXSizOneSymBol.ttf'
p2608
aS'/home/kannab/soft/casa-pipeline-release-5.6.1-8.el7/lib/python2.7/site-packages/matplotlib/mpl-data/fonts/ttf/STIXNonUni.ttf'
p2609
aS'/home/kannab/soft/casa-pipeline-release-5.6.1-8.el7/lib/python2.7/site-packages/matplotlib/mpl-data/fonts/ttf/VeraMono.ttf'
p2610
aS'/home/kannab/soft/casa-pipeline-release-5.6.1-8.el7/lib/python2.7/site-packages/matplotlib/mpl-data/fonts/ttf/STIXSizThreeSymReg.ttf'
p2611
aS'/usr/share/fonts/noto/NotoSans-Medium.ttf'
p2612
aS'/usr/share/fonts/TTF/MalOtf.ttf'
p2613
aS'/usr/share/fonts/noto/NotoSansOldItalic-Regular.ttf'
p2614
aS'/usr/share/fonts/noto/NotoSerif-MediumItalic.ttf'
p2615
aS'/usr/share/fonts/noto/NotoSans-LightItalic.ttf'
p2616
aS'/usr/share/fonts/gsfonts/C059-Bold.otf'
p2617
aS'/usr/share/fonts/adobe-source-code-pro/SourceCodePro-Regular.otf'
p2618
aS'/usr/share/fonts/noto/NotoSansLaoUI-Medium.ttf'
p2619
aS'/usr/share/fonts/noto/NotoSerifGeorgian-Regular.ttf'
p2620
aS'/usr/share/fonts/noto/NotoSerifHebrew-Medium.ttf'
p2621
aS'/usr/share/fonts/noto/NotoSerif-Light.ttf'
p2622
aS'/usr/share/fonts/noto/NotoSansTamil-Bold.ttf'
p2623
aS'/usr/share/fonts/noto/NotoSerifTibetan-Black.ttf'
p2624
aS'/usr/share/fonts/noto/NotoSansSymbols-Bold.ttf'
p2625
aS'/usr/share/fonts/noto/NotoSansEthiopic-Black.ttf'
p2626
aS'/usr/share/fonts/noto/NotoSansKhmer-Bold.ttf'
p2627
aS'/usr/share/fonts/noto/NotoSansKannada-Light.ttf'
p2628
aS'/usr/share/fonts/noto/NotoSansLao-Medium.ttf'
p2629
aS'/usr/share/fonts/noto/NotoSansTamilUI-Bold.ttf'
p2630
aS'/usr/share/fonts/noto/NotoSansBamum-Regular.ttf'
p2631
aS'/usr/share/fonts/droid/DroidSansArmenian.ttf'
p2632
aS'/usr/share/fonts/noto/NotoSansOlChiki-Regular.ttf'
p2633
aS'/usr/share/fonts/noto/NotoSerifSinhala-Black.ttf'
p2634
aS'/usr/share/fonts/gsfonts/C059-Roman.otf'
p2635
aS'/usr/share/fonts/noto/NotoSansCherokee-Medium.ttf'
p2636
aS'/usr/share/fonts/noto/NotoSansHebrew-Light.ttf'
p2637
aS'/usr/share/fonts/gsfonts/NimbusRoman-Bold.otf'
p2638
aS'/usr/share/fonts/TTF/VeraMoIt.ttf'
p2639
aS'/usr/share/fonts/noto/NotoSerifLao-Bold.ttf'
p2640
aS'/usr/share/fonts/adobe-source-code-pro/SourceCodePro-Bold.otf'
p2641
aS'/usr/share/fonts/noto/NotoSansDevanagariUI-Black.ttf'
p2642
aS'/usr/share/fonts/noto/NotoSansNewTaiLue-Regular.ttf'
p2643
aS'/usr/share/fonts/noto/NotoSansLimbu-Regular.ttf'
p2644
aS'/usr/share/fonts/noto/NotoSerifDisplay-Medium.ttf'
p2645
aS'/usr/share/fonts/noto/NotoSerifTamil-Bold.ttf'
p2646
aS'/usr/share/fonts/noto/NotoSerifKannada-Light.ttf'
p2647
aS'/usr/share/fonts/noto/NotoSerifTamilSlanted-Light.ttf'
p2648
aS'/usr/share/fonts/noto/NotoSansKannadaUI-Medium.ttf'
p2649
aS'/usr/share/fonts/noto/NotoSerifDisplay-BlackItalic.ttf'
p2650
aS'/usr/share/fonts/gsfonts/C059-BdIta.otf'
p2651
aS'/usr/share/fonts/noto/NotoSansArabic-Regular.ttf'
p2652
aS'/usr/share/fonts/noto/NotoSansThaana-Black.ttf'
p2653
aS'/usr/share/fonts/noto/NotoSerifMyanmar-Bold.ttf'
p2654
aS'/usr/share/fonts/TTF/mal2-n.ttf'
p2655
aS'/usr/share/fonts/noto/NotoSansCham-Regular.ttf'
p2656
aS'/usr/share/fonts/noto/NotoSansCham-Thin.ttf'
p2657
aS'/usr/share/fonts/noto/NotoSansCham-Light.ttf'
p2658
aS'/usr/share/fonts/noto/NotoSansBengali-Light.ttf'
p2659
aS'/usr/share/fonts/noto/NotoSansThaiUI-Regular.ttf'
p2660
aS'/usr/share/fonts/noto/NotoSerifEthiopic-Light.ttf'
p2661
aS'/usr/share/fonts/noto/NotoSansDisplay-Regular.ttf'
p2662
aS'/usr/share/fonts/TTF/MuktiNarrowBold.ttf'
p2663
aS'/usr/share/fonts/noto/NotoSerifDisplay-MediumItalic.ttf'
p2664
aS'/usr/share/fonts/noto/NotoSansCherokee-Bold.ttf'
p2665
aS'/usr/share/fonts/noto/NotoSansChakma-Regular.ttf'
p2666
aS'/usr/share/fonts/gsfonts/NimbusMonoPS-Regular.otf'
p2667
aS'/usr/share/fonts/noto/NotoSansPauCinHau-Regular.ttf'
p2668
aS'/usr/share/fonts/noto/NotoSansMalayalam-Light.ttf'
p2669
aS'/usr/share/fonts/noto/NotoSansGeorgian-Regular.ttf'
p2670
aS'/usr/share/fonts/noto/NotoSansDevanagari-Bold.ttf'
p2671
aS'/usr/share/fonts/noto/NotoSerifSinhala-Thin.ttf'
p2672
aS'/usr/share/fonts/noto/NotoSansTamilUI-Thin.ttf'
p2673
aS'/usr/share/fonts/noto/NotoSansThaana-Thin.ttf'
p2674
aS'/usr/share/fonts/noto/NotoSansDeseret-Regular.ttf'
p2675
aS'/usr/share/fonts/noto/NotoSansHebrew-Regular.ttf'
p2676
aS'/usr/share/fonts/droid/DroidSansDevanagari-Regular.ttf'
p2677
aS'/usr/share/fonts/noto/NotoSerifGurmukhi-Black.ttf'
p2678
aS'/usr/share/fonts/noto/NotoSerifHebrew-Black.ttf'
p2679
aS'/usr/share/fonts/noto/NotoSansHatran-Regular.ttf'
p2680
aS'/usr/share/fonts/noto/NotoSansHebrew-Thin.ttf'
p2681
aS'/usr/share/fonts/noto/NotoSansLao-Light.ttf'
p2682
aS'/usr/share/fonts/noto/NotoSansSinhala-Medium.ttf'
p2683
aS'/usr/share/fonts/droid/DroidNaskh-Regular-SystemUI.ttf'
p2684
aS'/usr/share/fonts/noto/NotoSansSamaritan-Regular.ttf'
p2685
aS'/usr/share/fonts/noto/NotoSansMyanmarUI-Medium.ttf'
p2686
aS'/usr/share/fonts/adobe-source-code-pro/SourceCodePro-Medium.otf'
p2687
aS'/usr/share/fonts/noto/NotoSansLaoUI-Light.ttf'
p2688
aS'/usr/share/fonts/noto/NotoSerifKhmer-Regular.ttf'
p2689
aS'/usr/share/fonts/noto/NotoSerifDevanagari-Regular.ttf'
p2690
aS'/usr/share/fonts/noto/NotoSansBuhid-Regular.ttf'
p2691
aS'/usr/share/fonts/noto/NotoSerifLao-Medium.ttf'
p2692
aS'/usr/share/fonts/noto/NotoSansDevanagariUI-Regular.ttf'
p2693
aS'/usr/share/fonts/noto/NotoSansSinhalaUI-Regular.ttf'
p2694
aS'/usr/share/fonts/TTF/VeraMono.ttf'
p2695
aS'/usr/share/fonts/noto/NotoSerifTamil-Black.ttf'
p2696
aS'/usr/share/fonts/TTF/AkaashNormal.ttf'
p2697
aS'/usr/share/fonts/noto/NotoSansDisplay-Italic.ttf'
p2698
aS'/usr/share/fonts/noto/NotoSerifGurmukhi-Light.ttf'
p2699
aS'/usr/share/fonts/gsfonts/P052-Bold.otf'
p2700
aS'/usr/share/fonts/noto/NotoSansArabicUI-Bold.ttf'
p2701
aS'/usr/share/fonts/noto/NotoSansShavian-Regular.ttf'
p2702
aS'/usr/share/fonts/noto/NotoSansSoraSompeng-Regular.ttf'
p2703
aS'/usr/share/fonts/noto/NotoSansManichaean-Regular.ttf'
p2704
aS'/usr/share/fonts/noto/NotoSansCanadianAboriginal-Bold.ttf'
p2705
aS'/usr/share/fonts/noto/NotoSansArmenian-Regular.ttf'
p2706
aS'/usr/share/fonts/adobe-source-code-pro/SourceCodePro-LightIt.otf'
p2707
aS'/usr/share/fonts/noto/NotoSansArabicUI-Light.ttf'
p2708
aS'/usr/share/fonts/noto/NotoSerifGujarati-Black.ttf'
p2709
aS'/usr/share/fonts/gsfonts/URWBookman-LightItalic.otf'
p2710
aS'/usr/share/fonts/noto/NotoSerifKannada-Thin.ttf'
p2711
aS'/usr/share/fonts/noto/NotoSansCaucasianAlbanian-Regular.ttf'
p2712
aS'/usr/share/fonts/noto/NotoSansSyriac-Black.ttf'
p2713
aS'/usr/share/fonts/noto/NotoSansThaana-Light.ttf'
p2714
aS'/usr/share/fonts/noto/NotoSerifDisplay-LightItalic.ttf'
p2715
aS'/usr/share/fonts/noto/NotoSansKhojki-Regular.ttf'
p2716
aS'/usr/share/fonts/noto/NotoSansKhmerUI-Bold.ttf'
p2717
aS'/usr/share/fonts/noto/NotoSerifGurmukhi-Regular.ttf'
p2718
aS'/usr/share/fonts/noto/NotoSerif-LightItalic.ttf'
p2719
aS'/usr/share/fonts/noto/NotoSansSyriac-Regular.ttf'
p2720
aS'/usr/share/fonts/noto/NotoSans-Bold.ttf'
p2721
aS'/usr/share/fonts/noto/NotoSansEgyptianHieroglyphs-Regular.ttf'
p2722
aS'/usr/share/fonts/noto/NotoSerifDisplay-Black.ttf'
p2723
aS'/usr/share/fonts/noto/NotoSansGurmukhiUI-Regular.ttf'
p2724
aS'/usr/share/fonts/noto/NotoSansSymbols-Black.ttf'
p2725
aS'/usr/share/fonts/noto/NotoSansMyanmarUI-Light.ttf'
p2726
aS'/usr/share/fonts/noto/NotoSansCanadianAboriginal-Regular.ttf'
p2727
aS'/usr/share/fonts/TTF/akruti1b.ttf'
p2728
aS'/usr/share/fonts/noto/NotoSansOldHungarian-Regular.ttf'
p2729
aS'/usr/share/fonts/noto/NotoSansDevanagariUI-Medium.ttf'
p2730
aS'/usr/share/fonts/droid/DroidSerif-Regular.ttf'
p2731
aS'/usr/share/fonts/noto/NotoSerifKannada-Regular.ttf'
p2732
aS'/usr/share/fonts/noto/NotoSansTibetan-Regular.ttf'
p2733
aS'/usr/share/fonts/noto/NotoSerifMalayalam-Bold.ttf'
p2734
aS'/usr/share/fonts/noto/NotoSerifTamilSlanted-Medium.ttf'
p2735
aS'/usr/share/fonts/noto/NotoSerifGujarati-Medium.ttf'
p2736
aS'/usr/share/fonts/noto/NotoSerifGeorgian-Medium.ttf'
p2737
aS'/usr/share/fonts/droid/DroidSansFallbackFull.ttf'
p2738
aS'/usr/share/fonts/noto/NotoSansCanadianAboriginal-Light.ttf'
p2739
aS'/usr/share/fonts/adobe-source-code-pro/SourceCodePro-Semibold.otf'
p2740
aS'/usr/share/fonts/noto/NotoNastaliqUrdu-Regular.ttf'
p2741
aS'/usr/share/fonts/noto/NotoSansOldPermic-Regular.ttf'
p2742
aS'/usr/share/fonts/noto/NotoSerifTelugu-Bold.ttf'
p2743
aS'/usr/share/fonts/noto/NotoSansOgham-Regular.ttf'
p2744
aS'/usr/share/fonts/droid/DroidSerif-Italic.ttf'
p2745
aS'/usr/share/fonts/noto/NotoSerifDisplay-ThinItalic.ttf'
p2746
aS'/usr/share/fonts/droid/DroidSansMono.ttf'
p2747
aS'/usr/share/fonts/noto/NotoSerif-Thin.ttf'
p2748
aS'/usr/share/fonts/TTF/Vera.ttf'
p2749
aS'/usr/share/fonts/noto/NotoSerifHebrew-Thin.ttf'
p2750
aS'/usr/share/fonts/TTF/ani.ttf'
p2751
aS'/usr/share/fonts/noto/NotoSansBengali-Regular.ttf'
p2752
aS'/usr/share/fonts/noto/NotoSerifSinhala-Light.ttf'
p2753
aS'/usr/share/fonts/noto/NotoSansThai-Regular.ttf'
p2754
aS'/usr/share/fonts/noto/NotoSansPhagsPa-Regular.ttf'
p2755
aS'/usr/share/fonts/droid/DroidSansEthiopic-Bold.ttf'
p2756
aS'/usr/share/fonts/noto/NotoSansCypriot-Regular.ttf'
p2757
aS'/usr/share/fonts/TTF/VeraBI.ttf'
p2758
aS'/usr/share/fonts/noto/NotoSansTaiViet-Regular.ttf'
p2759
aS'/usr/share/fonts/noto/NotoSerifArmenian-Light.ttf'
p2760
aS'/usr/share/fonts/droid/DroidSerif-BoldItalic.ttf'
p2761
aS'/usr/share/fonts/noto/NotoSansMath-Regular.ttf'
p2762
aS'/usr/share/fonts/adobe-source-code-pro/SourceCodePro-ExtraLightIt.otf'
p2763
aS'/usr/share/fonts/noto/NotoSerif-Italic.ttf'
p2764
aS'/usr/share/fonts/noto/NotoMono-Regular.ttf/NotoMono-Regular.ttf'
p2765
aS'/usr/share/fonts/noto/NotoSerifDisplay-BoldItalic.ttf'
p2766
aS'/usr/share/fonts/TTF/TAMu_Kadampari.ttf'
p2767
aS'/usr/share/fonts/TTF/Inconsolata-Bold.ttf'
p2768
aS'/usr/share/fonts/noto/NotoSansTamilUI-Regular.ttf'
p2769
aS'/usr/share/fonts/noto/NotoSansKhmer-Thin.ttf'
p2770
aS'/usr/share/fonts/noto/NotoSansTaiLe-Regular.ttf'
p2771
aS'/usr/share/fonts/noto/NotoSansMeeteiMayek-Regular.ttf'
p2772
aS'/usr/share/fonts/droid/DroidSansThai.ttf'
p2773
aS'/usr/share/fonts/noto/NotoSerifGeorgian-Black.ttf'
p2774
aS'/usr/share/fonts/noto/NotoSansImperialAramaic-Regular.ttf'
p2775
aS'/usr/share/fonts/gsfonts/NimbusSans-BoldItalic.otf'
p2776
aS'/usr/share/fonts/noto/NotoSansOldSouthArabian-Regular.ttf'
p2777
aS'/usr/share/fonts/noto/NotoSansTelugu-Regular.ttf'
p2778
aS'/usr/share/fonts/gsfonts/NimbusSansNarrow-Oblique.otf'
p2779
aS'/usr/share/fonts/noto/NotoSansThaiUI-Bold.ttf'
p2780
aS'/usr/share/fonts/noto/NotoSansMalayalam-Medium.ttf'
p2781
aS'/usr/share/fonts/noto/NotoSerifGurmukhi-Bold.ttf'
p2782
aS'/usr/share/fonts/noto/NotoSansLao-Regular.ttf'
p2783
aS'/usr/share/fonts/noto/NotoSansThai-Bold.ttf'
p2784
aS'/usr/share/fonts/noto/NotoSansKhudawadi-Regular.ttf'
p2785
aS'/usr/share/fonts/noto/NotoSansSinhalaUI-Black.ttf'
p2786
aS'/usr/share/fonts/noto/NotoSansThai-Black.ttf'
p2787
aS'/usr/share/fonts/noto/NotoColorEmoji.ttf'
p2788
aS'/usr/share/fonts/noto/NotoSansDevanagari-Black.ttf'
p2789
aS'/usr/share/fonts/noto/NotoSansLaoUI-Thin.ttf'
p2790
aS'/usr/share/fonts/noto/NotoSansThaana-Regular.ttf'
p2791
aS'/usr/share/fonts/TTF/Hack-Regular.ttf'
p2792
aS'/usr/share/fonts/noto/NotoSansDisplay-ThinItalic.ttf'
p2793
aS'/usr/share/fonts/noto/NotoSansKhmer-Black.ttf'
p2794
aS'/usr/share/fonts/gsfonts/NimbusSans-Bold.otf'
p2795
aS'/usr/share/fonts/noto/NotoSansMyanmarUI-Black.ttf'
p2796
aS'/usr/share/fonts/noto/NotoSerifArmenian-Black.ttf'
p2797
aS'/usr/share/fonts/noto/NotoSansBengali-Bold.ttf'
p2798
aS'/usr/share/fonts/liberation/LiberationMono-Bold.ttf'
p2799
aS'/usr/share/fonts/noto/NotoSansThaiUI-Thin.ttf'
p2800
aS'/usr/share/fonts/TTF/Hack-Bold.ttf'
p2801
aS'/usr/share/fonts/noto/NotoSansCham-Black.ttf'
p2802
aS'/usr/share/fonts/noto/NotoSansNabataean-Regular.ttf'
p2803
aS'/usr/share/fonts/TTF/GurbaniBoliLite.ttf'
p2804
aS'/usr/share/fonts/noto/NotoSansGeorgian-Black.ttf'
p2805
aS'/usr/share/fonts/gsfonts/NimbusMonoPS-Italic.otf'
p2806
aS'/usr/share/fonts/noto/NotoSans-BlackItalic.ttf'
p2807
aS'/usr/share/fonts/noto/NotoSansGeorgian-Bold.ttf'
p2808
aS'/usr/share/fonts/noto/NotoSansOsmanya-Regular.ttf'
p2809
aS'/usr/share/fonts/noto/NotoSerifLao-Light.ttf'
p2810
aS'/usr/share/fonts/noto/NotoSerif-ThinItalic.ttf'
p2811
aS'/usr/share/fonts/liberation/LiberationSans-Bold.ttf'
p2812
aS'/usr/share/fonts/noto/NotoSansMyanmar-Regular.ttf'
p2813
aS'/usr/share/fonts/noto/NotoSerifHebrew-Light.ttf'
p2814
aS'/usr/share/fonts/cantarell/Cantarell-ExtraBold.otf'
p2815
aS'/usr/share/fonts/cantarell/Cantarell-Regular.otf'
p2816
aS'/usr/share/fonts/noto/NotoSansSharada-Regular.ttf'
p2817
aS'/usr/share/fonts/noto/NotoSansCarian-Regular.ttf'
p2818
aS'/usr/share/fonts/noto/NotoSansAdlamUnjoined-Regular.ttf'
p2819
aS'/usr/share/fonts/adobe-source-code-pro/SourceCodePro-Light.otf'
p2820
aS'/usr/share/fonts/noto/NotoSansKhmer-Regular.ttf'
p2821
aS'/usr/share/fonts/gsfonts/NimbusRoman-BoldItalic.otf'
p2822
aS'/usr/share/fonts/noto/NotoSerifEthiopic-Medium.ttf'
p2823
aS'/usr/share/fonts/noto/NotoSansKaithi-Regular.ttf'
p2824
aS'/usr/share/fonts/noto/NotoSansArabic-Medium.ttf'
p2825
aS'/usr/share/fonts/noto/NotoSansTamil-Light.ttf'
p2826
aS'/usr/share/fonts/noto/NotoSansEthiopic-Light.ttf'
p2827
aS'/usr/share/fonts/TTF/VeraIt.ttf'
p2828
aS'/usr/share/fonts/noto/NotoSansKhmer-Medium.ttf'
p2829
aS'/usr/share/fonts/noto/NotoSansKayahLi-Regular.ttf'
p2830
aS'/usr/share/fonts/noto/NotoSerifMyanmar-Thin.ttf'
p2831
aS'/usr/share/fonts/noto/NotoSansSymbols-Light.ttf'
p2832
aS'/usr/share/fonts/TTF/VeraBd.ttf'
p2833
aS'/usr/share/fonts/TTF/TSCu_Paranar.ttf'
p2834
aS'/usr/share/fonts/noto/NotoSansBengali-Medium.ttf'
p2835
aS'/usr/share/fonts/TTF/TSCu_paranarb.ttf'
p2836
aS'/usr/share/fonts/noto/NotoSansMro-Regular.ttf'
p2837
aS'/usr/share/fonts/noto/NotoSans-Light.ttf'
p2838
aS'/usr/share/fonts/noto/NotoSansOriyaUI-Regular.ttf'
p2839
aS'/usr/share/fonts/noto/NotoSansKannada-Black.ttf'
p2840
aS'/usr/share/fonts/noto/NotoSans-Italic.ttf'
p2841
aS'/usr/share/fonts/gsfonts/StandardSymbolsPS.otf'
p2842
aS'/usr/share/fonts/noto/NotoSansModi-Regular.ttf'
p2843
aS'/usr/share/fonts/adobe-source-code-pro/SourceCodePro-ExtraLight.otf'
p2844
aS'/usr/share/fonts/noto/NotoSansKannadaUI-Regular.ttf'
p2845
aS'/usr/share/fonts/noto/NotoSansLisu-Regular.ttf'
p2846
aS'/usr/share/fonts/noto/NotoSansMultani-Regular.ttf'
p2847
aS'/usr/share/fonts/noto/NotoSansMalayalam-Thin.ttf'
p2848
aS'/usr/share/fonts/noto/NotoSansOriya-Bold.ttf'
p2849
aS'/usr/share/fonts/TTF/VeraMoBI.ttf'
p2850
aS'/usr/share/fonts/noto/NotoSansDuployan-Regular.ttf'
p2851
aS'/usr/share/fonts/noto/NotoSansDisplay-BlackItalic.ttf'
p2852
aS'/usr/share/fonts/noto/NotoSansHanunoo-Regular.ttf'
p2853
aS'/usr/share/fonts/noto/NotoSansNewa-Regular.ttf'
p2854
aS'/usr/share/fonts/noto/NotoSansKannada-Medium.ttf'
p2855
aS'/usr/share/fonts/noto/NotoSerifTibetan-Regular.ttf'
p2856
aS'/usr/share/fonts/noto/NotoKufiArabic-Bold.ttf'
p2857
aS'/usr/share/fonts/noto/NotoSansGeorgian-Thin.ttf'
p2858
aS'/usr/share/fonts/noto/NotoSansArmenian-Light.ttf'
p2859
aS'/usr/share/fonts/noto/NotoSansUgaritic-Regular.ttf'
p2860
aS'/usr/share/fonts/adobe-source-code-pro/SourceCodePro-SemiboldIt.otf'
p2861
aS'/usr/share/fonts/droid/DroidSansEthiopic-Regular.ttf'
p2862
aS'/usr/share/fonts/noto/NotoSansInscriptionalParthian-Regular.ttf'
p2863
aS'/usr/share/fonts/noto/NotoSansTamilUI-Black.ttf'
p2864
aS'/usr/share/fonts/noto/NotoNaskhArabicUI-Bold.ttf'
p2865
aS'/usr/share/fonts/TTF/Sampige.ttf'
p2866
aS'/usr/share/fonts/droid/DroidNaskh-Bold.ttf'
p2867
aS'/usr/share/fonts/noto/NotoSansCanadianAboriginal-Black.ttf'
p2868
aS'/usr/share/fonts/noto/NotoSansArabicUI-Regular.ttf'
p2869
aS'/usr/share/fonts/noto/NotoSerifGurmukhi-Medium.ttf'
p2870
aS'/usr/share/fonts/noto/NotoNastaliqUrdu-Bold.ttf'
p2871
aS'/usr/share/fonts/noto/NotoKufiArabic-Regular.ttf'
p2872
aS'/usr/share/fonts/noto/NotoSansMandaic-Regular.ttf'
p2873
aS'/usr/share/fonts/noto/NotoSansEthiopic-Bold.ttf'
p2874
aS'/usr/share/fonts/gsfonts/C059-Italic.otf'
p2875
aS'/usr/share/fonts/TTF/TSCu_Times.ttf'
p2876
aS'/usr/share/fonts/noto/NotoSansCanadianAboriginal-Thin.ttf'
p2877
aS'/usr/share/fonts/noto/NotoSansLycian-Regular.ttf'
p2878
aS'/usr/share/fonts/noto/NotoSansMalayalam-Regular.ttf'
p2879
aS'/usr/share/fonts/gsfonts/P052-Italic.otf'
p2880
aS'/usr/share/fonts/noto/NotoSansThaana-Bold.ttf'
p2881
aS'/usr/share/fonts/noto/NotoSerifThai-Thin.ttf'
p2882
aS'/usr/share/fonts/noto/NotoSansMalayalamUI-Regular.ttf'
p2883
aS'/usr/share/fonts/noto/NotoSansTagalog-Regular.ttf'
p2884
aS'/usr/share/fonts/noto/NotoSansPahawhHmong-Regular.ttf'
p2885
aS'/usr/share/fonts/adobe-source-code-pro/SourceCodePro-It.otf'
p2886
aS'/usr/share/fonts/noto/NotoSansLepcha-Regular.ttf'
p2887
aS'/usr/share/fonts/TTF/Inconsolata-Regular.ttf'
p2888
aS'/usr/share/fonts/liberation/LiberationSerif-Bold.ttf'
p2889
aS'/usr/share/fonts/noto/NotoSerifKannada-Bold.ttf'
p2890
aS'/usr/share/fonts/noto/NotoSansSinhala-Regular.ttf'
p2891
aS'/usr/share/fonts/noto/NotoSans-Regular.ttf'
p2892
aS'/usr/share/fonts/noto/NotoSerif-BlackItalic.ttf'
p2893
aS'/usr/share/fonts/noto/NotoSansBengaliUI-Black.ttf'
p2894
aS'/usr/share/fonts/noto/NotoSansTamilUI-Light.ttf'
p2895
aS'/usr/share/fonts/noto/NotoSansJavanese-Bold.ttf'
p2896
aS'/usr/share/fonts/noto/NotoSansCanadianAboriginal-Medium.ttf'
p2897
aS'/usr/share/fonts/gsfonts/NimbusMonoPS-Bold.otf'
p2898
aS'/usr/share/fonts/TTF/malayalam.ttf'
p2899
aS'/usr/share/fonts/noto/NotoSansKhmerUI-Thin.ttf'
p2900
aS'/usr/share/fonts/noto/NotoSansTamil-Regular.ttf'
p2901
aS'/usr/share/fonts/noto/NotoSerifGujarati-Light.ttf'
p2902
aS'/usr/share/fonts/cantarell/Cantarell-Bold.otf'
p2903
aS'/usr/share/fonts/liberation/LiberationSans-BoldItalic.ttf'
p2904
aS'/usr/share/fonts/noto/NotoSerifDisplay-Regular.ttf'
p2905
aS'/usr/share/fonts/noto/NotoSansLinearB-Regular.ttf'
p2906
aS'/usr/share/fonts/noto/NotoSansMiao-Regular.ttf'
p2907
aS'/usr/share/fonts/TTF/mal1-n.ttf'
p2908
aS'/usr/share/fonts/noto/NotoSansDisplay-BoldItalic.ttf'
p2909
aS'/usr/share/fonts/noto/NotoSansLaoUI-Bold.ttf'
p2910
aS'/usr/share/fonts/noto/NotoSerifMyanmar-Light.ttf'
p2911
aS'/usr/share/fonts/TTF/padmaa-Medium-0.5.ttf'
p2912
aS'/usr/share/fonts/noto/NotoSerifLao-Regular.ttf'
p2913
aS'/usr/share/fonts/TTF/TAMu_Maduram.ttf'
p2914
aS'/usr/share/fonts/noto/NotoSerifMyanmar-Medium.ttf'
p2915
aS'/usr/share/fonts/gsfonts/NimbusSansNarrow-BoldOblique.otf'
p2916
aS'/usr/share/fonts/noto/NotoSansArabicUI-Medium.ttf'
p2917
aS'/usr/share/fonts/noto/NotoSansDevanagariUI-Bold.ttf'
p2918
aS'/usr/share/fonts/noto/NotoSansDevanagari-Regular.ttf'
p2919
aS'/usr/share/fonts/noto/NotoSansKharoshthi-Regular.ttf'
p2920
aS'/usr/share/fonts/noto/NotoSerif-Regular.ttf'
p2921
aS'/usr/share/fonts/noto/NotoSansGeorgian-Light.ttf'
p2922
aS'/usr/share/fonts/TTF/akruti2b.ttf'
p2923
aS'/usr/share/fonts/noto/NotoSansMono-Black.ttf'
p2924
aS'/usr/share/fonts/adobe-source-code-pro/SourceCodeVariable-Roman.otf'
p2925
aS'/usr/share/fonts/noto/NotoSansDisplay-Bold.ttf'
p2926
aS'/usr/share/fonts/noto/NotoSansEthiopic-Regular.ttf'
p2927
aS'/usr/share/fonts/noto/NotoSerifTamil-Thin.ttf'
p2928
aS'/usr/share/fonts/noto/NotoSansTeluguUI-Regular.ttf'
p2929
aS'/usr/share/fonts/noto/NotoSerifKannada-Medium.ttf'
p2930
aS'/usr/share/fonts/noto/NotoSerifSinhala-Bold.ttf'
p2931
aS'/usr/share/fonts/noto/NotoSerif-BoldItalic.ttf'
p2932
aS'/usr/share/fonts/noto/NotoSerifThai-Black.ttf'
p2933
aS'/usr/share/fonts/TTF/SagarNormal.ttf'
p2934
aS'/usr/share/fonts/noto/NotoSansSymbols-Thin.ttf'
p2935
aS'/usr/share/fonts/noto/NotoSansMalayalamUI-Black.ttf'
p2936
aS'/usr/share/fonts/noto/NotoSansDevanagari-Medium.ttf'
p2937
aS'/usr/share/fonts/noto/NotoSansTamil-Black.ttf'
p2938
aS'/usr/share/fonts/gsfonts/P052-Roman.otf'
p2939
aS'/usr/share/fonts/noto/NotoSansBengali-Black.ttf'
p2940
aS'/usr/share/fonts/noto/NotoSansNKo-Regular.ttf'
p2941
aS'/usr/share/fonts/noto/NotoSerifDisplay-Italic.ttf'
p2942
aS'/usr/share/fonts/noto/NotoSansLao-Thin.ttf'
p2943
aS'/usr/share/fonts/gsfonts/NimbusRoman-Regular.otf'
p2944
aS'/usr/share/fonts/noto/NotoSansSinhala-Black.ttf'
p2945
aS'/usr/share/fonts/noto/NotoSansArabicUI-Thin.ttf'
p2946
aS'/usr/share/fonts/TTF/mal1-b.ttf'
p2947
aS'/usr/share/fonts/noto/NotoSerifAhom-Regular.ttf'
p2948
aS'/usr/share/fonts/noto/NotoSansArabic-Bold.ttf'
p2949
aS'/usr/share/fonts/noto/NotoSansMalayalamUI-Bold.ttf'
p2950
aS'/usr/share/fonts/noto/NotoSansDisplay-Black.ttf'
p2951
aS'/usr/share/fonts/droid/DroidSansGeorgian.ttf'
p2952
aS'/usr/share/fonts/noto/NotoSansKannada-Thin.ttf'
p2953
aS'/usr/share/fonts/gsfonts/URWBookman-DemiItalic.otf'
p2954
aS'/usr/share/fonts/noto/NotoSansBassaVah-Regular.ttf'
p2955
aS'/usr/share/fonts/noto/NotoSerifLao-Thin.ttf'
p2956
aS'/usr/share/fonts/liberation/LiberationMono-Italic.ttf'
p2957
aS'/usr/share/fonts/noto/NotoSansArabic-Thin.ttf'
p2958
aS'/usr/share/fonts/noto/NotoSerifEthiopic-Bold.ttf'
p2959
aS'/usr/share/fonts/noto/NotoSansVai-Regular.ttf'
p2960
aS'/usr/share/fonts/noto/NotoSansTirhuta-Regular.ttf'
p2961
aS'/usr/share/fonts/noto/NotoSansLao-Black.ttf'
p2962
aS'/usr/share/fonts/TTF/Gargi-1.2b.ttf'
p2963
aS'/usr/share/fonts/noto/NotoSansMyanmarUI-Thin.ttf'
p2964
aS'/usr/share/fonts/noto/NotoSansTagbanwa-Regular.ttf'
p2965
aS'/usr/share/fonts/noto/NotoSans-Thin.ttf'
p2966
aS'/usr/share/fonts/noto/NotoNaskhArabicUI-Regular.ttf'
p2967
aS'/usr/share/fonts/noto/NotoSerifDevanagari-Bold.ttf'
p2968
aS'/usr/share/fonts/noto/NotoSansMyanmarUI-Regular.ttf'
p2969
aS'/usr/share/fonts/noto/NotoSansHebrew-Bold.ttf'
p2970
aS'/usr/share/fonts/noto/NotoSerifArmenian-Bold.ttf'
p2971
aS'/usr/share/fonts/noto/NotoSansCherokee-Black.ttf'
p2972
aS'/usr/share/fonts/noto/NotoSansDevanagariUI-Thin.ttf'
p2973
aS'/usr/share/fonts/noto/NotoSansSinhala-Light.ttf'
p2974
aS'/usr/share/fonts/noto/NotoSansTibetan-Bold.ttf'
p2975
aS'/usr/share/fonts/TTF/Pothana2000.ttf'
p2976
aS'/usr/share/fonts/noto/NotoSerifMyanmar-Black.ttf'
p2977
aS'/usr/share/fonts/noto/NotoSansSaurashtra-Regular.ttf'
p2978
aS'/usr/share/fonts/noto/NotoSansOldNorthArabian-Regular.ttf'
p2979
aS'/usr/share/fonts/noto/NotoSerifBengali-Regular.ttf'
p2980
aS'/usr/share/fonts/noto/NotoSansMalayalamUI-Medium.ttf'
p2981
aS'/usr/share/fonts/noto/NotoSansMahajani-Regular.ttf'
p2982
aS'/usr/share/fonts/noto/NotoSansOriyaUI-Bold.ttf'
p2983
aS'/usr/share/fonts/noto/NotoSansKannadaUI-Black.ttf'
p2984
aS'/usr/share/fonts/noto/NotoSansMyanmar-Thin.ttf'
p2985
aS'/usr/share/fonts/TTF/TSCu_paranari.ttf'
p2986
aS'/usr/share/fonts/gsfonts/D050000L.otf'
p2987
aS'/usr/share/fonts/noto/NotoSansCherokee-Regular.ttf'
p2988
aS'/usr/share/fonts/noto/NotoSansSinhalaUI-Light.ttf'
p2989
aS'/usr/share/fonts/TTF/Hack-Italic.ttf'
p2990
aS'/usr/share/fonts/noto/NotoSansLydian-Regular.ttf'
p2991
aS'/usr/share/fonts/noto/NotoSansGujaratiUI-Bold.ttf'
p2992
aS'/usr/share/fonts/noto/NotoSansOldPersian-Regular.ttf'
p2993
aS'/usr/share/fonts/noto/NotoSansCham-Medium.ttf'
p2994
aS'/usr/share/fonts/noto/NotoSerifGujarati-Thin.ttf'
p2995
aS'/usr/share/fonts/noto/NotoSerifHebrew-Bold.ttf'
p2996
aS'/usr/share/fonts/noto/NotoSansElbasan-Regular.ttf'
p2997
aS'/usr/share/fonts/noto/NotoSansJavanese-Regular.ttf'
p2998
aS'/usr/share/fonts/droid/DroidKufi-Bold.ttf'
p2999
aS'/usr/share/fonts/noto/NotoSansSinhalaUI-Medium.ttf'
p3000
aS'/usr/share/fonts/noto/NotoSansAnatolianHieroglyphs-Regular.ttf'
p3001
aS'/usr/share/fonts/noto/NotoSerifDisplay-Thin.ttf'
p3002
aS'/usr/share/fonts/noto/NotoSerif-Bold.ttf'
p3003
aS'/usr/share/fonts/noto/NotoSansSinhala-Bold.ttf'
p3004
aS'/usr/share/fonts/noto/NotoSansSylotiNagri-Regular.ttf'
p3005
aS'/usr/share/fonts/noto/NotoSansSundanese-Regular.ttf'
p3006
aS'/usr/share/fonts/noto/NotoSerifKhmer-Bold.ttf'
p3007
aS'/usr/share/fonts/droid/DroidSansJapanese.ttf'
p3008
aS'/usr/share/fonts/noto/NotoSansDisplay-Medium.ttf'
p3009
aS'/usr/share/fonts/noto/NotoSansTamil-Medium.ttf'
p3010
aS'/usr/share/fonts/noto/NotoSerifGujarati-Regular.ttf'
p3011
aS'/usr/share/fonts/gsfonts/URWGothic-BookOblique.otf'
p3012
aS'/usr/share/fonts/noto/NotoSansLao-Bold.ttf'
p3013
aS'/usr/share/fonts/noto/NotoSansCuneiform-Regular.ttf'
p3014
aS'/usr/share/fonts/noto/NotoSansThaiUI-Light.ttf'
p3015
aS'/usr/share/fonts/noto/NotoSansBengaliUI-Medium.ttf'
p3016
aS'/usr/share/fonts/noto/NotoSansThai-Medium.ttf'
p3017
aS'/usr/share/fonts/TTF/MuktiNarrow.ttf'
p3018
aS'/usr/share/fonts/TTF/Hack-BoldItalic.ttf'
p3019
aS'/usr/share/fonts/noto/NotoSansMono-Regular.ttf'
p3020
aS'/usr/share/fonts/noto/NotoSans-BoldItalic.ttf'
p3021
aS'/usr/share/fonts/noto/NotoSerifEthiopic-Regular.ttf'
p3022
aS'/usr/share/fonts/noto/NotoSerifThai-Regular.ttf'
p3023
aS'/usr/share/fonts/noto/NotoSansSinhalaUI-Thin.ttf'
p3024
aS'/usr/share/fonts/noto/NotoSerifTamilSlanted-Bold.ttf'
p3025
aS'/usr/share/fonts/noto/NotoSansDevanagari-Light.ttf'
p3026
aS'/usr/share/fonts/noto/NotoSansDisplay-MediumItalic.ttf'
p3027
aS'/usr/share/fonts/liberation/LiberationMono-BoldItalic.ttf'
p3028
aS'/usr/share/fonts/noto/NotoSerifTamilSlanted-Black.ttf'
p3029
aS'/usr/share/fonts/noto/NotoSansMyanmar-Bold.ttf'
p3030
aS'/usr/share/fonts/noto/NotoSansGrantha-Regular.ttf'
p3031
aS'/usr/share/fonts/noto/NotoSerifTamil-Medium.ttf'
p3032
aS'/usr/share/fonts/noto/NotoSerifTamil-Light.ttf'
p3033
aS'/usr/share/fonts/noto/NotoSansBengaliUI-Light.ttf'
p3034
aS'/usr/share/fonts/noto/NotoSansKannada-Regular.ttf'
p3035
aS'/usr/share/fonts/noto/NotoSerifTelugu-Regular.ttf'
p3036
aS'/usr/share/fonts/noto/NotoSansMalayalamUI-Light.ttf'
p3037
aS'/usr/share/fonts/liberation/LiberationSerif-Regular.ttf'
p3038
aS'/usr/share/fonts/TTF/akruti1.ttf'
p3039
aS'/usr/share/fonts/adobe-source-code-pro/SourceCodePro-MediumIt.otf'
p3040
aS'/usr/share/fonts/gsfonts/URWGothic-Book.otf'
p3041
aS'/usr/share/fonts/liberation/LiberationSerif-Italic.ttf'
p3042
aS'/usr/share/fonts/noto/NotoSerifThai-Light.ttf'
p3043
aS'/usr/share/fonts/noto/NotoSansMyanmar-Light.ttf'
p3044
aS'/usr/share/fonts/gsfonts/NimbusSansNarrow-Bold.otf'
p3045
aS'/usr/share/fonts/noto/NotoSansGujarati-Regular.ttf'
p3046
aS'/usr/share/fonts/noto/NotoSansTifinagh-Regular.ttf'
p3047
aS'/usr/share/fonts/noto/NotoSansDevanagari-Thin.ttf'
p3048
aS'/usr/share/fonts/noto/NotoSansKannadaUI-Thin.ttf'
p3049
aS'/usr/share/fonts/noto/NotoSerifDisplay-Light.ttf'
p3050
aS'/usr/share/fonts/noto/NotoSerifKannada-Black.ttf'
p3051
aS'/usr/share/fonts/noto/NotoSansGeorgian-Medium.ttf'
p3052
aS'/usr/share/fonts/gsfonts/Z003-MediumItalic.otf'
p3053
aS'/usr/share/fonts/noto/NotoSansKhmerUI-Medium.ttf'
p3054
aS'/usr/share/fonts/gsfonts/NimbusSans-Italic.otf'
p3055
aS'/usr/share/fonts/noto/NotoSansMono-Light.ttf'
p3056
aS'/usr/share/fonts/noto/NotoSerifTibetan-Bold.ttf'
p3057
aS'/usr/share/fonts/noto/NotoSansGurmukhi-Regular.ttf'
p3058
aS'/usr/share/fonts/gsfonts/URWBookman-Demi.otf'
p3059
aS'/usr/share/fonts/noto/NotoSansArabic-Black.ttf'
p3060
aS'/usr/share/fonts/noto/NotoSerifKhmer-Black.ttf'
p3061
aS'/usr/share/fonts/noto/NotoSansSymbols-Medium.ttf'
p3062
aS'/usr/share/fonts/noto/NotoSerifArmenian-Regular.ttf'
p3063
aS'/usr/share/fonts/noto/NotoSansArmenian-Black.ttf'
p3064
aS'/usr/share/fonts/noto/NotoSansWarangCiti-Regular.ttf'
p3065
aS'/usr/share/fonts/noto/NotoSansDisplay-LightItalic.ttf'
p3066
aS'/usr/share/fonts/noto/NotoSansMyanmarUI-Bold.ttf'
p3067
aS'/usr/share/fonts/droid/DroidSansArabic.ttf'
p3068
aS'/usr/share/fonts/noto/NotoSansGurmukhi-Bold.ttf'
p3069
aS'/usr/share/fonts/noto/NotoSerifGeorgian-Bold.ttf'
p3070
aS'/usr/share/fonts/liberation/LiberationSerif-BoldItalic.ttf'
p3071
aS'/usr/share/fonts/noto/NotoSansMalayalamUI-Thin.ttf'
p3072
aS'/usr/share/fonts/noto/NotoSansBengaliUI-Regular.ttf'
p3073
aS'/usr/share/fonts/droid/DroidSansFallbackLegacy.ttf'
p3074
aS'/usr/share/fonts/adobe-source-code-pro/SourceCodePro-BoldIt.otf'
p3075
aS'/usr/share/fonts/gsfonts/URWGothic-Demi.otf'
p3076
aS'/usr/share/fonts/noto/NotoSansTaiTham-Regular.ttf'
p3077
aS'/usr/share/fonts/noto/NotoSansKannadaUI-Light.ttf'
p3078
aS'/usr/share/fonts/noto/NotoSansCoptic-Regular.ttf'
p3079
aS'/usr/share/fonts/noto/NotoSerifDisplay-Bold.ttf'
p3080
aS'/usr/share/fonts/noto/NotoSansArmenian-Medium.ttf'
p3081
aS'/usr/share/fonts/noto/NotoSerif-Medium.ttf'
p3082
aS'/usr/share/fonts/noto/NotoSansKannadaUI-Bold.ttf'
p3083
aS'/usr/share/fonts/noto/NotoSansRejang-Regular.ttf'
p3084
aS'/usr/share/fonts/noto/NotoSansBuginese-Regular.ttf'
p3085
aS'/usr/share/fonts/noto/NotoSansGlagolitic-Regular.ttf'
p3086
aS'/usr/share/fonts/TTF/TSCu_Comic.ttf'
p3087
aS'/usr/share/fonts/noto/NotoSerifTibetan-Thin.ttf'
p3088
aS'/usr/share/fonts/noto/NotoSerifKhmer-Thin.ttf'
p3089
aS'/usr/share/fonts/noto/NotoSansCham-Bold.ttf'
p3090
aS'/usr/share/fonts/TTF/gbolilite.ttf'
p3091
aS'/usr/share/fonts/droid/DroidSansHebrew-Regular.ttf'
p3092
aS'/usr/share/fonts/noto/NotoSansCherokee-Thin.ttf'
p3093
aS'/usr/share/fonts/noto/NotoSansLaoUI-Black.ttf'
p3094
aS'/usr/share/fonts/gsfonts/URWBookman-Light.otf'
p3095
aS'/usr/share/fonts/noto/NotoSansTelugu-Bold.ttf'
p3096
aS'/usr/share/fonts/noto/NotoSerifLao-Black.ttf'
p3097
aS'/usr/share/fonts/noto/NotoNaskhArabic-Bold.ttf'
p3098
aS'/usr/share/fonts/TTF/VeraSe.ttf'
p3099
aS'/usr/share/fonts/noto/NotoSansGothic-Regular.ttf'
p3100
aS'/usr/share/fonts/droid/DroidKufi-Regular.ttf'
p3101
aS'/usr/share/fonts/noto/NotoSans-Black.ttf'
p3102
aS'/usr/share/fonts/noto/NotoSerifHebrew-Regular.ttf'
p3103
aS'/usr/share/fonts/noto/NotoSerifGujarati-Bold.ttf'
p3104
aS'/usr/share/fonts/noto/NotoSerifTibetan-Medium.ttf'
p3105
aS'/usr/share/fonts/noto/NotoSans-MediumItalic.ttf'
p3106
aS'/usr/share/fonts/noto/NotoSerifGeorgian-Light.ttf'
p3107
aS'/usr/share/fonts/noto/NotoSansHebrew-Medium.ttf'
p3108
aS'/usr/share/fonts/cantarell/Cantarell-Light.otf'
p3109
aS'/usr/share/fonts/noto/NotoSansDisplay-Thin.ttf'
p3110
aS'/usr/share/fonts/noto/NotoSansMalayalam-Bold.ttf'
p3111
aS'/usr/share/fonts/noto/NotoSerifThai-Bold.ttf'
p3112
aS'/usr/share/fonts/noto/NotoMusic-Regular.ttf'
p3113
aS'/usr/share/fonts/noto/NotoSerifMalayalam-Regular.ttf'
p3114
aS'/usr/share/fonts/droid/DroidSans-Bold.ttf'
p3115
aS'/usr/share/fonts/noto/NotoSansRunic-Regular.ttf'
p3116
aS'/usr/share/fonts/noto/NotoSerifBalinese-Regular.ttf'
p3117
aS'/usr/share/fonts/liberation/LiberationSans-Regular.ttf'
p3118
aS'/usr/share/fonts/noto/NotoSerifMyanmar-Regular.ttf'
p3119
aS'/usr/share/fonts/noto/NotoSansBengali-Thin.ttf'
p3120
aS'/usr/share/fonts/noto/NotoSansGurmukhiUI-Bold.ttf'
p3121
aS'/usr/share/fonts/noto/NotoSansEthiopic-Medium.ttf'
p3122
aS'/usr/share/fonts/noto/NotoNaskhArabic-Regular.ttf'
p3123
aS'/usr/share/fonts/noto/NotoSansPhoenician-Regular.ttf'
p3124
aS'/usr/share/fonts/noto/NotoSansPalmyrene-Regular.ttf'
p3125
aS'/usr/share/fonts/noto/NotoSansThaiUI-Medium.ttf'
p3126
aS'/usr/share/fonts/liberation/LiberationMono-Regular.ttf'
p3127
aS'/usr/share/fonts/noto/NotoSansGujarati-Bold.ttf'
p3128
aS'/usr/share/fonts/TTF/LikhanNormal.ttf'
p3129
aS'/usr/share/fonts/noto/NotoSansThai-Thin.ttf'
p3130
aS'/usr/share/fonts/noto/NotoSerifGurmukhi-Thin.ttf'
p3131
aS'/usr/share/fonts/noto/NotoSansTakri-Regular.ttf'
p3132
aS'/usr/share/fonts/noto/NotoSansTeluguUI-Bold.ttf'
p3133
aS'/usr/share/fonts/cantarell/Cantarell-Thin.otf'
p3134
aS'/usr/share/fonts/noto/NotoSansGujaratiUI-Regular.ttf'
p3135
aS'/usr/share/fonts/noto/NotoSerifTibetan-Light.ttf'
p3136
aS'/usr/share/fonts/noto/NotoSansSymbols2-Regular.ttf'
p3137
aS'/usr/share/fonts/noto/NotoSansLinearA-Regular.ttf'
p3138
aS'/usr/share/fonts/noto/NotoSansOsage-Regular.ttf'
p3139
aS'/usr/share/fonts/noto/NotoSerifBengali-Bold.ttf'
p3140
aS'/usr/share/fonts/droid/DroidNaskh-Regular.ttf'
p3141
aS'/usr/share/fonts/noto/NotoSansEthiopic-Thin.ttf'
p3142
aS'/usr/share/fonts/noto/NotoSansMendeKikakui-Regular.ttf'
p3143
aS'/usr/share/fonts/gsfonts/NimbusMonoPS-BoldItalic.otf'
p3144
aS'/usr/share/fonts/gsfonts/NimbusSans-Regular.otf'
p3145
aS'/usr/share/fonts/noto/NotoSerifEthiopic-Black.ttf'
p3146
aS'/usr/share/fonts/noto/NotoSansHebrew-Black.ttf'
p3147
aS'/usr/share/fonts/noto/NotoSansSinhalaUI-Bold.ttf'
p3148
aS'/usr/share/fonts/noto/NotoSerifKhmer-Medium.ttf'
p3149
aS'/usr/share/fonts/noto/NotoSansDevanagariUI-Light.ttf'
p3150
aS'/usr/share/fonts/noto/NotoSansAvestan-Regular.ttf'
p3151
aS'/usr/share/fonts/noto/NotoSansMalayalam-Black.ttf'
p3152
aS'/usr/share/fonts/noto/NotoSansAdlam-Regular.ttf'
p3153
aS'/usr/share/fonts/noto/NotoSansBengaliUI-Thin.ttf'
p3154
aS'/usr/share/fonts/noto/NotoSerifTamilSlanted-Regular.ttf'
p3155
aS'/usr/share/fonts/noto/NotoSerifGeorgian-Thin.ttf'
p3156
aS'/usr/share/fonts/noto/NotoSerifEthiopic-Thin.ttf'
p3157
aS'/usr/share/fonts/TTF/akruti2.ttf'
p3158
aS'/usr/share/fonts/droid/DroidSansHebrew-Bold.ttf'
p3159
aS'/usr/share/fonts/TTF/VeraMoBd.ttf'
p3160
aS'/usr/share/fonts/gsfonts/URWGothic-DemiOblique.otf'
p3161
aS'/usr/share/fonts/noto/NotoSansMono-Thin.ttf'
p3162
aS'/usr/share/fonts/noto/NotoSansKhmer-Light.ttf'
p3163
aS'/usr/share/fonts/noto/NotoSansMeroitic-Regular.ttf'
p3164
aS'/usr/share/fonts/noto/NotoSansDisplay-Light.ttf'
p3165
aS'/usr/share/fonts/noto/NotoSansSymbols-Regular.ttf'
p3166
aS'/usr/share/fonts/noto/NotoSansMongolian-Regular.ttf'
p3167
aS'/usr/share/fonts/gsfonts/NimbusRoman-Italic.otf'
p3168
aS'/usr/share/fonts/noto/NotoSansBatak-Regular.ttf'
p3169
aS'/usr/share/fonts/noto/NotoSansSyriac-Thin.ttf'
p3170
aS'/usr/share/fonts/noto/NotoSansArabic-Light.ttf'
p3171
aS'/usr/share/fonts/noto/NotoSerifArmenian-Thin.ttf'
p3172
aS'/usr/share/fonts/noto/NotoSansBrahmi-Regular.ttf'
p3173
aS'/usr/share/fonts/noto/NotoSerifThai-Medium.ttf'
p3174
aS'/usr/share/fonts/noto/NotoSerifSinhala-Medium.ttf'
p3175
aS'/usr/share/fonts/TTF/TAMu_Kalyani.ttf'
p3176
aS'/usr/share/fonts/noto/NotoSansKhmerUI-Light.ttf'
p3177
aS'/usr/share/fonts/noto/NotoSerifTamil-Regular.ttf'
p3178
aS'/usr/share/fonts/noto/NotoSansMono-Medium.ttf'
p3179
aS'/usr/share/fonts/noto/NotoSansKhmerUI-Regular.ttf'
p3180
aS'/usr/share/fonts/droid/DroidSans.ttf'
p3181
aS'/usr/share/fonts/TTF/oriya.ttf'
p3182
aS'/usr/share/fonts/noto/NotoSansCherokee-Light.ttf'
p3183
aS'/usr/share/fonts/droid/DroidSerif-Bold.ttf'
p3184
aS'/usr/share/fonts/noto/NotoSerifTamilSlanted-Thin.ttf'
p3185
aS'/usr/share/fonts/noto/NotoSansBengaliUI-Bold.ttf'
p3186
aS'/usr/share/fonts/noto/NotoSansArmenian-Thin.ttf'
p3187
aS'/usr/share/fonts/noto/NotoSansOriya-Regular.ttf'
p3188
aS'/usr/share/fonts/noto/NotoSansOldTurkic-Regular.ttf'
p3189
aS'/usr/share/fonts/noto/NotoSansTamilUI-Medium.ttf'
p3190
aS'/usr/share/fonts/gsfonts/NimbusSansNarrow-Regular.otf'
p3191
aS'/usr/share/fonts/noto/NotoSerif-Black.ttf'
p3192
aS'/usr/share/fonts/liberation/LiberationSans-Italic.ttf'
p3193
aS'/usr/share/fonts/TTF/VeraSeBd.ttf'
p3194
aS'/usr/share/fonts/noto/NotoSansSinhala-Thin.ttf'
p3195
aS'/usr/share/fonts/adobe-source-code-pro/SourceCodePro-Black.otf'
p3196
aS'/usr/share/fonts/noto/NotoSansThaiUI-Black.ttf'
p3197
aS'/usr/share/fonts/noto/NotoSansMyanmar-Medium.ttf'
p3198
aS'/usr/share/fonts/noto/NotoSansKannada-Bold.ttf'
p3199
aS'/usr/share/fonts/noto/NotoSansMyanmar-Black.ttf'
p3200
aS'/usr/share/fonts/TTF/mal2-b.ttf'
p3201
aS'/usr/share/fonts/noto/NotoSerifKhmer-Light.ttf'
p3202
aS'/usr/share/fonts/noto/NotoSansArmenian-Bold.ttf'
p3203
aS'/usr/share/fonts/TTF/padmaa-Bold-0.5.ttf'
p3204
aS'/usr/share/fonts/gsfonts/P052-BoldItalic.otf'
p3205
aS'/usr/share/fonts/noto/NotoSansInscriptionalPahlavi-Regular.ttf'
p3206
aS'/usr/share/fonts/droid/DroidSansTamil-Bold.ttf'
p3207
aS'/usr/share/fonts/noto/NotoSansLaoUI-Regular.ttf'
p3208
aS'/usr/share/fonts/noto/NotoSans-ThinItalic.ttf'
p3209
aS'/usr/share/fonts/adobe-source-code-pro/SourceCodePro-BlackIt.otf'
p3210
aS'/usr/share/fonts/noto/NotoSerifArmenian-Medium.ttf'
p3211
aS'/usr/share/fonts/noto/NotoSansKhmerUI-Black.ttf'
p3212
aS'/usr/share/fonts/droid/DroidSansTamil-Regular.ttf'
p3213
aS'/usr/share/fonts/adobe-source-code-pro/SourceCodeVariable-Italic.otf'
p3214
aS'/usr/share/fonts/noto/NotoSansPsalterPahlavi-Regular.ttf'
p3215
aS'/usr/share/fonts/noto/NotoSansBhaiksuki-Regular.ttf'
p3216
aS'/usr/share/fonts/droid/DroidSansFallback.ttf'
p3217
aS'/usr/share/fonts/noto/NotoSansYi-Regular.ttf'
p3218
aS'/usr/share/fonts/noto/NotoSansTamil-Thin.ttf'
p3219
aS'/usr/share/fonts/noto/NotoSansThai-Light.ttf'
p3220
aS'/usr/share/fonts/noto/NotoSerifSinhala-Regular.ttf'
p3221
aS'/usr/share/fonts/noto/NotoSansMono-Bold.ttf'
p3222
aS'/usr/share/fonts/noto/NotoSansThaana-Medium.ttf'
p3223
aS'/usr/share/fonts/noto/NotoSansMarchen-Regular.ttf'
p3224
aS'/usr/share/fonts/noto/NotoSansArabicUI-Black.ttf'
p3225
asS'_FontManager__default_weight'
p3226
g13
sS'_version'
p3227
I7
sS'ttf_lookup_cache'
p3228
(dp3229
sS'default_size'
p3230
NsS'defaultFont'
p3231
(dp3232
g2572
Nsg2574
g2578
ssS'afmfiles'
p3233
(lp3234
S'/home/kannab/soft/casa-pipeline-release-5.6.1-8.el7/lib/python2.7/site-packages/matplotlib/mpl-data/fonts/afm/pagko8a.afm'
p3235
aS'/home/kannab/soft/casa-pipeline-release-5.6.1-8.el7/lib/python2.7/site-packages/matplotlib/mpl-data/fonts/afm/phvbo8an.afm'
p3236
aS'/home/kannab/soft/casa-pipeline-release-5.6.1-8.el7/lib/python2.7/site-packages/matplotlib/mpl-data/fonts/afm/pbkdi8a.afm'
p3237
aS'/home/kannab/soft/casa-pipeline-release-5.6.1-8.el7/lib/python2.7/site-packages/matplotlib/mpl-data/fonts/pdfcorefonts/Helvetica-Bold.afm'
p3238
aS'/home/kannab/soft/casa-pipeline-release-5.6.1-8.el7/lib/python2.7/site-packages/matplotlib/mpl-data/fonts/pdfcorefonts/Symbol.afm'
p3239
aS'/home/kannab/soft/casa-pipeline-release-5.6.1-8.el7/lib/python2.7/site-packages/matplotlib/mpl-data/fonts/afm/phvr8a.afm'
p3240
aS'/home/kannab/soft/casa-pipeline-release-5.6.1-8.el7/lib/python2.7/site-packages/matplotlib/mpl-data/fonts/afm/pcrbo8a.afm'
p3241
aS'/home/kannab/soft/casa-pipeline-release-5.6.1-8.el7/lib/python2.7/site-packages/matplotlib/mpl-data/fonts/afm/phvb8a.afm'
p3242
aS'/home/kannab/soft/casa-pipeline-release-5.6.1-8.el7/lib/python2.7/site-packages/matplotlib/mpl-data/fonts/afm/phvro8a.afm'
p3243
aS'/home/kannab/soft/casa-pipeline-release-5.6.1-8.el7/lib/python2.7/site-packages/matplotlib/mpl-data/fonts/afm/cmsy10.afm'
p3244
aS'/home/kannab/soft/casa-pipeline-release-5.6.1-8.el7/lib/python2.7/site-packages/matplotlib/mpl-data/fonts/afm/cmtt10.afm'
p3245
aS'/home/kannab/soft/casa-pipeline-release-5.6.1-8.el7/lib/python2.7/site-packages/matplotlib/mpl-data/fonts/afm/psyr.afm'
p3246
aS'/home/kannab/soft/casa-pipeline-release-5.6.1-8.el7/lib/python2.7/site-packages/matplotlib/mpl-data/fonts/afm/ptmbi8a.afm'
p3247
aS'/home/kannab/soft/casa-pipeline-release-5.6.1-8.el7/lib/python2.7/site-packages/matplotlib/mpl-data/fonts/afm/pcrr8a.afm'
p3248
aS'/home/kannab/soft/casa-pipeline-release-5.6.1-8.el7/lib/python2.7/site-packages/matplotlib/mpl-data/fonts/afm/pncb8a.afm'
p3249
aS'/home/kannab/soft/casa-pipeline-release-5.6.1-8.el7/lib/python2.7/site-packages/matplotlib/mpl-data/fonts/afm/pcrb8a.afm'
p3250
aS'/home/kannab/soft/casa-pipeline-release-5.6.1-8.el7/lib/python2.7/site-packages/matplotlib/mpl-data/fonts/pdfcorefonts/Courier-BoldOblique.afm'
p3251
aS'/home/kannab/soft/casa-pipeline-release-5.6.1-8.el7/lib/python2.7/site-packages/matplotlib/mpl-data/fonts/afm/cmmi10.afm'
p3252
aS'/home/kannab/soft/casa-pipeline-release-5.6.1-8.el7/lib/python2.7/site-packages/matplotlib/mpl-data/fonts/afm/ptmri8a.afm'
p3253
aS'/home/kannab/soft/casa-pipeline-release-5.6.1-8.el7/lib/python2.7/site-packages/matplotlib/mpl-data/fonts/afm/ptmr8a.afm'
p3254
aS'/home/kannab/soft/casa-pipeline-release-5.6.1-8.el7/lib/python2.7/site-packages/matplotlib/mpl-data/fonts/afm/pagd8a.afm'
p3255
aS'/home/kannab/soft/casa-pipeline-release-5.6.1-8.el7/lib/python2.7/site-packages/matplotlib/mpl-data/fonts/afm/pagk8a.afm'
p3256
aS'/home/kannab/soft/casa-pipeline-release-5.6.1-8.el7/lib/python2.7/site-packages/matplotlib/mpl-data/fonts/afm/cmex10.afm'
p3257
aS'/home/kannab/soft/casa-pipeline-release-5.6.1-8.el7/lib/python2.7/site-packages/matplotlib/mpl-data/fonts/afm/pplr8a.afm'
p3258
aS'/home/kannab/soft/casa-pipeline-release-5.6.1-8.el7/lib/python2.7/site-packages/matplotlib/mpl-data/fonts/afm/pncri8a.afm'
p3259
aS'/home/kannab/soft/casa-pipeline-release-5.6.1-8.el7/lib/python2.7/site-packages/matplotlib/mpl-data/fonts/afm/phvr8an.afm'
p3260
aS'/home/kannab/soft/casa-pipeline-release-5.6.1-8.el7/lib/python2.7/site-packages/matplotlib/mpl-data/fonts/afm/phvlo8a.afm'
p3261
aS'/home/kannab/soft/casa-pipeline-release-5.6.1-8.el7/lib/python2.7/site-packages/matplotlib/mpl-data/fonts/afm/pncbi8a.afm'
p3262
aS'/home/kannab/soft/casa-pipeline-release-5.6.1-8.el7/lib/python2.7/site-packages/matplotlib/mpl-data/fonts/afm/putr8a.afm'
p3263
aS'/home/kannab/soft/casa-pipeline-release-5.6.1-8.el7/lib/python2.7/site-packages/matplotlib/mpl-data/fonts/afm/pbkli8a.afm'
p3264
aS'/home/kannab/soft/casa-pipeline-release-5.6.1-8.el7/lib/python2.7/site-packages/matplotlib/mpl-data/fonts/afm/pbkl8a.afm'
p3265
aS'/home/kannab/soft/casa-pipeline-release-5.6.1-8.el7/lib/python2.7/site-packages/matplotlib/mpl-data/fonts/pdfcorefonts/Helvetica-BoldOblique.afm'
p3266
aS'/home/kannab/soft/casa-pipeline-release-5.6.1-8.el7/lib/python2.7/site-packages/matplotlib/mpl-data/fonts/pdfcorefonts/Times-Italic.afm'
p3267
aS'/home/kannab/soft/casa-pipeline-release-5.6.1-8.el7/lib/python2.7/site-packages/matplotlib/mpl-data/fonts/afm/putb8a.afm'
p3268
aS'/home/kannab/soft/casa-pipeline-release-5.6.1-8.el7/lib/python2.7/site-packages/matplotlib/mpl-data/fonts/pdfcorefonts/Helvetica-Oblique.afm'
p3269
aS'/home/kannab/soft/casa-pipeline-release-5.6.1-8.el7/lib/python2.7/site-packages/matplotlib/mpl-data/fonts/afm/pbkd8a.afm'
p3270
aS'/home/kannab/soft/casa-pipeline-release-5.6.1-8.el7/lib/python2.7/site-packages/matplotlib/mpl-data/fonts/afm/pncr8a.afm'
p3271
aS'/home/kannab/soft/casa-pipeline-release-5.6.1-8.el7/lib/python2.7/site-packages/matplotlib/mpl-data/fonts/pdfcorefonts/Courier-Bold.afm'
p3272
aS'/home/kannab/soft/casa-pipeline-release-5.6.1-8.el7/lib/python2.7/site-packages/matplotlib/mpl-data/fonts/pdfcorefonts/Times-BoldItalic.afm'
p3273
aS'/home/kannab/soft/casa-pipeline-release-5.6.1-8.el7/lib/python2.7/site-packages/matplotlib/mpl-data/fonts/pdfcorefonts/Helvetica.afm'
p3274
aS'/home/kannab/soft/casa-pipeline-release-5.6.1-8.el7/lib/python2.7/site-packages/matplotlib/mpl-data/fonts/afm/pplb8a.afm'
p3275
aS'/home/kannab/soft/casa-pipeline-release-5.6.1-8.el7/lib/python2.7/site-packages/matplotlib/mpl-data/fonts/pdfcorefonts/Courier-Oblique.afm'
p3276
aS'/home/kannab/soft/casa-pipeline-release-5.6.1-8.el7/lib/python2.7/site-packages/matplotlib/mpl-data/fonts/pdfcorefonts/ZapfDingbats.afm'
p3277
aS'/home/kannab/soft/casa-pipeline-release-5.6.1-8.el7/lib/python2.7/site-packages/matplotlib/mpl-data/fonts/afm/putbi8a.afm'
p3278
aS'/home/kannab/soft/casa-pipeline-release-5.6.1-8.el7/lib/python2.7/site-packages/matplotlib/mpl-data/fonts/afm/pplri8a.afm'
p3279
aS'/home/kannab/soft/casa-pipeline-release-5.6.1-8.el7/lib/python2.7/site-packages/matplotlib/mpl-data/fonts/afm/pagdo8a.afm'
p3280
aS'/home/kannab/soft/casa-pipeline-release-5.6.1-8.el7/lib/python2.7/site-packages/matplotlib/mpl-data/fonts/afm/phvb8an.afm'
p3281
aS'/home/kannab/soft/casa-pipeline-release-5.6.1-8.el7/lib/python2.7/site-packages/matplotlib/mpl-data/fonts/afm/pzdr.afm'
p3282
aS'/home/kannab/soft/casa-pipeline-release-5.6.1-8.el7/lib/python2.7/site-packages/matplotlib/mpl-data/fonts/afm/putri8a.afm'
p3283
aS'/home/kannab/soft/casa-pipeline-release-5.6.1-8.el7/lib/python2.7/site-packages/matplotlib/mpl-data/fonts/afm/phvl8a.afm'
p3284
aS'/home/kannab/soft/casa-pipeline-release-5.6.1-8.el7/lib/python2.7/site-packages/matplotlib/mpl-data/fonts/afm/pplbi8a.afm'
p3285
aS'/home/kannab/soft/casa-pipeline-release-5.6.1-8.el7/lib/python2.7/site-packages/matplotlib/mpl-data/fonts/pdfcorefonts/Times-Roman.afm'
p3286
aS'/home/kannab/soft/casa-pipeline-release-5.6.1-8.el7/lib/python2.7/site-packages/matplotlib/mpl-data/fonts/afm/phvro8an.afm'
p3287
aS'/home/kannab/soft/casa-pipeline-release-5.6.1-8.el7/lib/python2.7/site-packages/matplotlib/mpl-data/fonts/pdfcorefonts/Courier.afm'
p3288
aS'/home/kannab/soft/casa-pipeline-release-5.6.1-8.el7/lib/python2.7/site-packages/matplotlib/mpl-data/fonts/afm/cmr10.afm'
p3289
aS'/home/kannab/soft/casa-pipeline-release-5.6.1-8.el7/lib/python2.7/site-packages/matplotlib/mpl-data/fonts/afm/pcrro8a.afm'
p3290
aS'/home/kannab/soft/casa-pipeline-release-5.6.1-8.el7/lib/python2.7/site-packages/matplotlib/mpl-data/fonts/afm/pzcmi8a.afm'
p3291
aS'/home/kannab/soft/casa-pipeline-release-5.6.1-8.el7/lib/python2.7/site-packages/matplotlib/mpl-data/fonts/afm/ptmb8a.afm'
p3292
aS'/home/kannab/soft/casa-pipeline-release-5.6.1-8.el7/lib/python2.7/site-packages/matplotlib/mpl-data/fonts/pdfcorefonts/Times-Bold.afm'
p3293
aS'/home/kannab/soft/casa-pipeline-release-5.6.1-8.el7/lib/python2.7/site-packages/matplotlib/mpl-data/fonts/afm/phvbo8a.afm'
p3294
asS'afmlist'
p3295
(lp3296
g7
(g8
g9
NtRp3297
(dp3298
g12
g41
sg14
S'ITC Avant Garde Gothic'
p3299
sg16
I400
sg17
g13
sg18
g13
sg19
g3235
sg21
g22
sbag7
(g8
g9
NtRp3300
(dp3301
g12
g41
sg14
S'Helvetica'
p3302
sg16
I700
sg17
g812
sg18
g13
sg19
g3236
sg21
g22
sbag7
(g8
g9
NtRp3303
(dp3304
g12
g41
sg14
S'ITC Bookman'
p3305
sg16
I600
sg17
g13
sg18
g13
sg19
g3237
sg21
g22
sbag7
(g8
g9
NtRp3306
(dp3307
g12
g13
sg14
S'Helvetica'
p3308
sg16
I700
sg17
g13
sg18
g13
sg19
g3238
sg21
g22
sbag7
(g8
g9
NtRp3309
(dp3310
g12
g13
sg14
S'Symbol'
p3311
sg16
I500
sg17
g13
sg18
g13
sg19
g3239
sg21
g22
sbag7
(g8
g9
NtRp3312
(dp3313
g12
g13
sg14
S'Helvetica'
p3314
sg16
I500
sg17
g13
sg18
g13
sg19
g3240
sg21
g22
sbag7
(g8
g9
NtRp3315
(dp3316
g12
g41
sg14
S'Courier'
p3317
sg16
I700
sg17
g13
sg18
g13
sg19
g3241
sg21
g22
sbag7
(g8
g9
NtRp3318
(dp3319
g12
g13
sg14
S'Helvetica'
p3320
sg16
I700
sg17
g13
sg18
g13
sg19
g3242
sg21
g22
sbag7
(g8
g9
NtRp3321
(dp3322
g12
g41
sg14
S'Helvetica'
p3323
sg16
I500
sg17
g13
sg18
g13
sg19
g3243
sg21
g22
sbag7
(g8
g9
NtRp3324
(dp3325
g12
g41
sg14
S'Computer Modern'
p3326
sg16
I500
sg17
g13
sg18
g13
sg19
g3244
sg21
g22
sbag7
(g8
g9
NtRp3327
(dp3328
g12
g13
sg14
S'Computer Modern'
p3329
sg16
I500
sg17
g13
sg18
g13
sg19
g3245
sg21
g22
sbag7
(g8
g9
NtRp3330
(dp3331
g12
g13
sg14
S'Symbol'
p3332
sg16
I500
sg17
g13
sg18
g13
sg19
g3246
sg21
g22
sbag7
(g8
g9
NtRp3333
(dp3334
g12
g41
sg14
S'Times'
p3335
sg16
I700
sg17
g13
sg18
g13
sg19
g3247
sg21
g22
sbag7
(g8
g9
NtRp3336
(dp3337
g12
g13
sg14
S'Courier'
p3338
sg16
I500
sg17
g13
sg18
g13
sg19
g3248
sg21
g22
sbag7
(g8
g9
NtRp3339
(dp3340
g12
g13
sg14
S'New Century Schoolbook'
p3341
sg16
I700
sg17
g13
sg18
g13
sg19
g3249
sg21
g22
sbag7
(g8
g9
NtRp3342
(dp3343
g12
g13
sg14
S'Courier'
p3344
sg16
I700
sg17
g13
sg18
g13
sg19
g3250
sg21
g22
sbag7
(g8
g9
NtRp3345
(dp3346
g12
g41
sg14
S'Courier'
p3347
sg16
I700
sg17
g13
sg18
g13
sg19
g3251
sg21
g22
sbag7
(g8
g9
NtRp3348
(dp3349
g12
g41
sg14
S'Computer Modern'
p3350
sg16
I500
sg17
g13
sg18
g13
sg19
g3252
sg21
g22
sbag7
(g8
g9
NtRp3351
(dp3352
g12
g41
sg14
S'Times'
p3353
sg16
I500
sg17
g13
sg18
g13
sg19
g3253
sg21
g22
sbag7
(g8
g9
NtRp3354
(dp3355
g12
g13
sg14
S'Times'
p3356
sg16
I500
sg17
g13
sg18
g13
sg19
g3254
sg21
g22
sbag7
(g8
g9
NtRp3357
(dp3358
g12
g13
sg14
S'ITC Avant Garde Gothic'
p3359
sg16
I600
sg17
g13
sg18
g13
sg19
g3255
sg21
g22
sbag7
(g8
g9
NtRp3360
(dp3361
g12
g13
sg14
S'ITC Avant Garde Gothic'
p3362
sg16
I400
sg17
g13
sg18
g13
sg19
g3256
sg21
g22
sbag7
(g8
g9
NtRp3363
(dp3364
g12
g13
sg14
S'Computer Modern'
p3365
sg16
I500
sg17
g13
sg18
g13
sg19
g3257
sg21
g22
sbag7
(g8
g9
NtRp3366
(dp3367
g12
g13
sg14
S'Palatino'
p3368
sg16
I500
sg17
g13
sg18
g13
sg19
g3258
sg21
g22
sbag7
(g8
g9
NtRp3369
(dp3370
g12
g41
sg14
S'New Century Schoolbook'
p3371
sg16
I500
sg17
g13
sg18
g13
sg19
g3259
sg21
g22
sbag7
(g8
g9
NtRp3372
(dp3373
g12
g13
sg14
S'Helvetica'
p3374
sg16
I500
sg17
g812
sg18
g13
sg19
g3260
sg21
g22
sbag7
(g8
g9
NtRp3375
(dp3376
g12
g41
sg14
S'Helvetica'
p3377
sg16
I200
sg17
g13
sg18
g13
sg19
g3261
sg21
g22
sbag7
(g8
g9
NtRp3378
(dp3379
g12
g41
sg14
S'New Century Schoolbook'
p3380
sg16
I700
sg17
g13
sg18
g13
sg19
g3262
sg21
g22
sbag7
(g8
g9
NtRp3381
(dp3382
g12
g13
sg14
S'Utopia'
p3383
sg16
I400
sg17
g13
sg18
g13
sg19
g3263
sg21
g22
sbag7
(g8
g9
NtRp3384
(dp3385
g12
g41
sg14
S'ITC Bookman'
p3386
sg16
I200
sg17
g13
sg18
g13
sg19
g3264
sg21
g22
sbag7
(g8
g9
NtRp3387
(dp3388
g12
g13
sg14
S'ITC Bookman'
p3389
sg16
I200
sg17
g13
sg18
g13
sg19
g3265
sg21
g22
sbag7
(g8
g9
NtRp3390
(dp3391
g12
g41
sg14
S'Helvetica'
p3392
sg16
I700
sg17
g13
sg18
g13
sg19
g3266
sg21
g22
sbag7
(g8
g9
NtRp3393
(dp3394
g12
g41
sg14
S'Times'
p3395
sg16
I500
sg17
g13
sg18
g13
sg19
g3267
sg21
g22
sbag7
(g8
g9
NtRp3396
(dp3397
g12
g13
sg14
S'Utopia'
p3398
sg16
I700
sg17
g13
sg18
g13
sg19
g3268
sg21
g22
sbag7
(g8
g9
NtRp3399
(dp3400
g12
g41
sg14
S'Helvetica'
p3401
sg16
I500
sg17
g13
sg18
g13
sg19
g3269
sg21
g22
sbag7
(g8
g9
NtRp3402
(dp3403
g12
g13
sg14
S'ITC Bookman'
p3404
sg16
I600
sg17
g13
sg18
g13
sg19
g3270
sg21
g22
sbag7
(g8
g9
NtRp3405
(dp3406
g12
g13
sg14
S'New Century Schoolbook'
p3407
sg16
I500
sg17
g13
sg18
g13
sg19
g3271
sg21
g22
sbag7
(g8
g9
NtRp3408
(dp3409
g12
g13
sg14
S'Courier'
p3410
sg16
I700
sg17
g13
sg18
g13
sg19
g3272
sg21
g22
sbag7
(g8
g9
NtRp3411
(dp3412
g12
g41
sg14
S'Times'
p3413
sg16
I700
sg17
g13
sg18
g13
sg19
g3273
sg21
g22
sbag7
(g8
g9
NtRp3414
(dp3415
g12
g13
sg14
S'Helvetica'
p3416
sg16
I500
sg17
g13
sg18
g13
sg19
g3274
sg21
g22
sbag7
(g8
g9
NtRp3417
(dp3418
g12
g13
sg14
S'Palatino'
p3419
sg16
I700
sg17
g13
sg18
g13
sg19
g3275
sg21
g22
sbag7
(g8
g9
NtRp3420
(dp3421
g12
g41
sg14
S'Courier'
p3422
sg16
I500
sg17
g13
sg18
g13
sg19
g3276
sg21
g22
sbag7
(g8
g9
NtRp3423
(dp3424
g12
g13
sg14
S'ZapfDingbats'
p3425
sg16
I500
sg17
g13
sg18
g13
sg19
g3277
sg21
g22
sbag7
(g8
g9
NtRp3426
(dp3427
g12
g41
sg14
S'Utopia'
p3428
sg16
I700
sg17
g13
sg18
g13
sg19
g3278
sg21
g22
sbag7
(g8
g9
NtRp3429
(dp3430
g12
g41
sg14
S'Palatino'
p3431
sg16
I500
sg17
g13
sg18
g13
sg19
g3279
sg21
g22
sbag7
(g8
g9
NtRp3432
(dp3433
g12
g41
sg14
S'ITC Avant Garde Gothic'
p3434
sg16
I600
sg17
g13
sg18
g13
sg19
g3280
sg21
g22
sbag7
(g8
g9
NtRp3435
(dp3436
g12
g13
sg14
S'Helvetica'
p3437
sg16
I700
sg17
g812
sg18
g13
sg19
g3281
sg21
g22
sbag7
(g8
g9
NtRp3438
(dp3439
g12
g13
sg14
S'ITC Zapf Dingbats'
p3440
sg16
I500
sg17
g13
sg18
g13
sg19
g3282
sg21
g22
sbag7
(g8
g9
NtRp3441
(dp3442
g12
g41
sg14
S'Utopia'
p3443
sg16
I400
sg17
g13
sg18
g13
sg19
g3283
sg21
g22
sbag7
(g8
g9
NtRp3444
(dp3445
g12
g13
sg14
S'Helvetica'
p3446
sg16
I200
sg17
g13
sg18
g13
sg19
g3284
sg21
g22
sbag7
(g8
g9
NtRp3447
(dp3448
g12
g41
sg14
S'Palatino'
p3449
sg16
I700
sg17
g13
sg18
g13
sg19
g3285
sg21
g22
sbag7
(g8
g9
NtRp3450
(dp3451
g12
g13
sg14
S'Times'
p3452
sg16
I500
sg17
g13
sg18
g13
sg19
g3286
sg21
g22
sbag7
(g8
g9
NtRp3453
(dp3454
g12
g41
sg14
S'Helvetica'
p3455
sg16
I500
sg17
g812
sg18
g13
sg19
g3287
sg21
g22
sbag7
(g8
g9
NtRp3456
(dp3457
g12
g13
sg14
S'Courier'
p3458
sg16
I500
sg17
g13
sg18
g13
sg19
g3288
sg21
g22
sbag7
(g8
g9
NtRp3459
(dp3460
g12
g13
sg14
S'Computer Modern'
p3461
sg16
I500
sg17
g13
sg18
g13
sg19
g3289
sg21
g22
sbag7
(g8
g9
NtRp3462
(dp3463
g12
g41
sg14
S'Courier'
p3464
sg16
I500
sg17
g13
sg18
g13
sg19
g3290
sg21
g22
sbag7
(g8
g9
NtRp3465
(dp3466
g12
g41
sg14
S'ITC Zapf Chancery'
p3467
sg16
I500
sg17
g13
sg18
g13
sg19
g3291
sg21
g22
sbag7
(g8
g9
NtRp3468
(dp3469
g12
g13
sg14
S'Times'
p3470
sg16
I700
sg17
g13
sg18
g13
sg19
g3292
sg21
g22
sbag7
(g8
g9
NtRp3471
(dp3472
g12
g13
sg14
S'Times'
p3473
sg16
I700
sg17
g13
sg18
g13
sg19
g3293
sg21
g22
sbag7
(g8
g9
NtRp3474
(dp3475
g12
g41
sg14
S'Helvetica'
p3476
sg16
I700
sg17
g13
sg18
g13
sg19
g3294
sg21
g22
sbasb.